(imatplotlib.font_manager
FontManager
p1
(dp2
S'afm_lookup_cache'
p3
(dp4
sS'ttflist'
p5
(lp6
ccopy_reg
_reconstructor
p7
(cmatplotlib.font_manager
FontEntry
p8
c__builtin__
object
p9
NtRp10
(dp11
S'style'
p12
S'normal'
p13
sS'name'
p14
S'cmex10'
p15
sS'weight'
p16
I400
sS'stretch'
p17
g13
sS'variant'
p18
g13
sS'fname'
p19
S'/System/Library/Frameworks/Python.framework/Versions/2.7/Extras/lib/python/matplotlib/mpl-data/fonts/ttf/cmex10.ttf'
p20
sS'size'
p21
S'scalable'
p22
sbag7
(g8
g9
NtRp23
(dp24
g12
S'oblique'
p25
sg14
S'Bitstream Vera Sans'
p26
sg16
I700
sg17
g13
sg18
g13
sg19
S'/System/Library/Frameworks/Python.framework/Versions/2.7/Extras/lib/python/matplotlib/mpl-data/fonts/ttf/VeraBI.ttf'
p27
sg21
g22
sbag7
(g8
g9
NtRp28
(dp29
g12
g13
sg14
S'STIXNonUnicode'
p30
sg16
I400
sg17
g13
sg18
g13
sg19
S'/System/Library/Frameworks/Python.framework/Versions/2.7/Extras/lib/python/matplotlib/mpl-data/fonts/ttf/STIXNonUni.ttf'
p31
sg21
g22
sbag7
(g8
g9
NtRp32
(dp33
g12
g13
sg14
S'STIXNonUnicode'
p34
sg16
I700
sg17
g13
sg18
g13
sg19
S'/System/Library/Frameworks/Python.framework/Versions/2.7/Extras/lib/python/matplotlib/mpl-data/fonts/ttf/STIXNonUniBol.ttf'
p35
sg21
g22
sbag7
(g8
g9
NtRp36
(dp37
g12
g13
sg14
S'Bitstream Vera Sans Mono'
p38
sg16
I700
sg17
g13
sg18
g13
sg19
S'/System/Library/Frameworks/Python.framework/Versions/2.7/Extras/lib/python/matplotlib/mpl-data/fonts/ttf/VeraMoBd.ttf'
p39
sg21
g22
sbag7
(g8
g9
NtRp40
(dp41
g12
g13
sg14
S'cmr10'
p42
sg16
I400
sg17
g13
sg18
g13
sg19
S'/System/Library/Frameworks/Python.framework/Versions/2.7/Extras/lib/python/matplotlib/mpl-data/fonts/ttf/cmr10.ttf'
p43
sg21
g22
sbag7
(g8
g9
NtRp44
(dp45
g12
g13
sg14
S'STIXGeneral'
p46
sg16
I400
sg17
g13
sg18
g13
sg19
S'/System/Library/Frameworks/Python.framework/Versions/2.7/Extras/lib/python/matplotlib/mpl-data/fonts/ttf/STIXGeneral.ttf'
p47
sg21
g22
sbag7
(g8
g9
NtRp48
(dp49
g12
g25
sg14
S'Bitstream Vera Sans Mono'
p50
sg16
I400
sg17
g13
sg18
g13
sg19
S'/System/Library/Frameworks/Python.framework/Versions/2.7/Extras/lib/python/matplotlib/mpl-data/fonts/ttf/VeraMoIt.ttf'
p51
sg21
g22
sbag7
(g8
g9
NtRp52
(dp53
g12
g13
sg14
S'Bitstream Vera Serif'
p54
sg16
I400
sg17
g13
sg18
g13
sg19
S'/System/Library/Frameworks/Python.framework/Versions/2.7/Extras/lib/python/matplotlib/mpl-data/fonts/ttf/VeraSe.ttf'
p55
sg21
g22
sbag7
(g8
g9
NtRp56
(dp57
g12
g13
sg14
S'STIXSizeFiveSym'
p58
sg16
I400
sg17
g13
sg18
g13
sg19
S'/System/Library/Frameworks/Python.framework/Versions/2.7/Extras/lib/python/matplotlib/mpl-data/fonts/ttf/STIXSizFiveSymReg.ttf'
p59
sg21
g22
sbag7
(g8
g9
NtRp60
(dp61
g12
g13
sg14
S'Bitstream Vera Sans Mono'
p62
sg16
I400
sg17
g13
sg18
g13
sg19
S'/System/Library/Frameworks/Python.framework/Versions/2.7/Extras/lib/python/matplotlib/mpl-data/fonts/ttf/VeraMono.ttf'
p63
sg21
g22
sbag7
(g8
g9
NtRp64
(dp65
g12
g25
sg14
S'Bitstream Vera Sans Mono'
p66
sg16
I700
sg17
g13
sg18
g13
sg19
S'/System/Library/Frameworks/Python.framework/Versions/2.7/Extras/lib/python/matplotlib/mpl-data/fonts/ttf/VeraMoBI.ttf'
p67
sg21
g22
sbag7
(g8
g9
NtRp68
(dp69
g12
g13
sg14
S'STIXGeneral'
p70
sg16
I700
sg17
g13
sg18
g13
sg19
S'/System/Library/Frameworks/Python.framework/Versions/2.7/Extras/lib/python/matplotlib/mpl-data/fonts/ttf/STIXGeneralBol.ttf'
p71
sg21
g22
sbag7
(g8
g9
NtRp72
(dp73
g12
S'italic'
p74
sg14
S'STIXGeneral'
p75
sg16
I400
sg17
g13
sg18
g13
sg19
S'/System/Library/Frameworks/Python.framework/Versions/2.7/Extras/lib/python/matplotlib/mpl-data/fonts/ttf/STIXGeneralItalic.ttf'
p76
sg21
g22
sbag7
(g8
g9
NtRp77
(dp78
g12
g13
sg14
S'STIXSizeFourSym'
p79
sg16
I400
sg17
g13
sg18
g13
sg19
S'/System/Library/Frameworks/Python.framework/Versions/2.7/Extras/lib/python/matplotlib/mpl-data/fonts/ttf/STIXSizFourSymReg.ttf'
p80
sg21
g22
sbag7
(g8
g9
NtRp81
(dp82
g12
g13
sg14
S'STIXSizeThreeSym'
p83
sg16
I700
sg17
g13
sg18
g13
sg19
S'/System/Library/Frameworks/Python.framework/Versions/2.7/Extras/lib/python/matplotlib/mpl-data/fonts/ttf/STIXSizThreeSymBol.ttf'
p84
sg21
g22
sbag7
(g8
g9
NtRp85
(dp86
g12
g13
sg14
S'STIXSizeOneSym'
p87
sg16
I700
sg17
g13
sg18
g13
sg19
S'/System/Library/Frameworks/Python.framework/Versions/2.7/Extras/lib/python/matplotlib/mpl-data/fonts/ttf/STIXSizOneSymBol.ttf'
p88
sg21
g22
sbag7
(g8
g9
NtRp89
(dp90
g12
g13
sg14
S'STIXSizeFourSym'
p91
sg16
I700
sg17
g13
sg18
g13
sg19
S'/System/Library/Frameworks/Python.framework/Versions/2.7/Extras/lib/python/matplotlib/mpl-data/fonts/ttf/STIXSizFourSymBol.ttf'
p92
sg21
g22
sbag7
(g8
g9
NtRp93
(dp94
g12
g13
sg14
S'Bitstream Vera Sans'
p95
sg16
I700
sg17
g13
sg18
g13
sg19
S'/System/Library/Frameworks/Python.framework/Versions/2.7/Extras/lib/python/matplotlib/mpl-data/fonts/ttf/VeraBd.ttf'
p96
sg21
g22
sbag7
(g8
g9
NtRp97
(dp98
g12
g13
sg14
S'cmsy10'
p99
sg16
I400
sg17
g13
sg18
g13
sg19
S'/System/Library/Frameworks/Python.framework/Versions/2.7/Extras/lib/python/matplotlib/mpl-data/fonts/ttf/cmsy10.ttf'
p100
sg21
g22
sbag7
(g8
g9
NtRp101
(dp102
g12
g13
sg14
S'STIXSizeTwoSym'
p103
sg16
I400
sg17
g13
sg18
g13
sg19
S'/System/Library/Frameworks/Python.framework/Versions/2.7/Extras/lib/python/matplotlib/mpl-data/fonts/ttf/STIXSizTwoSymReg.ttf'
p104
sg21
g22
sbag7
(g8
g9
NtRp105
(dp106
g12
g74
sg14
S'STIXNonUnicode'
p107
sg16
I700
sg17
g13
sg18
g13
sg19
S'/System/Library/Frameworks/Python.framework/Versions/2.7/Extras/lib/python/matplotlib/mpl-data/fonts/ttf/STIXNonUniBolIta.ttf'
p108
sg21
g22
sbag7
(g8
g9
NtRp109
(dp110
g12
g13
sg14
S'cmb10'
p111
sg16
I400
sg17
g13
sg18
g13
sg19
S'/System/Library/Frameworks/Python.framework/Versions/2.7/Extras/lib/python/matplotlib/mpl-data/fonts/ttf/cmb10.ttf'
p112
sg21
g22
sbag7
(g8
g9
NtRp113
(dp114
g12
g13
sg14
S'cmmi10'
p115
sg16
I400
sg17
g13
sg18
g13
sg19
S'/System/Library/Frameworks/Python.framework/Versions/2.7/Extras/lib/python/matplotlib/mpl-data/fonts/ttf/cmmi10.ttf'
p116
sg21
g22
sbag7
(g8
g9
NtRp117
(dp118
g12
g25
sg14
S'Bitstream Vera Sans'
p119
sg16
I400
sg17
g13
sg18
g13
sg19
S'/System/Library/Frameworks/Python.framework/Versions/2.7/Extras/lib/python/matplotlib/mpl-data/fonts/ttf/VeraIt.ttf'
p120
sg21
g22
sbag7
(g8
g9
NtRp121
(dp122
g12
g13
sg14
S'STIXSizeOneSym'
p123
sg16
I400
sg17
g13
sg18
g13
sg19
S'/System/Library/Frameworks/Python.framework/Versions/2.7/Extras/lib/python/matplotlib/mpl-data/fonts/ttf/STIXSizOneSymReg.ttf'
p124
sg21
g22
sbag7
(g8
g9
NtRp125
(dp126
g12
g13
sg14
S'Bitstream Vera Sans'
p127
sg16
I400
sg17
g13
sg18
g13
sg19
S'/System/Library/Frameworks/Python.framework/Versions/2.7/Extras/lib/python/matplotlib/mpl-data/fonts/ttf/Vera.ttf'
p128
sg21
g22
sbag7
(g8
g9
NtRp129
(dp130
g12
g13
sg14
S'cmss10'
p131
sg16
I400
sg17
g13
sg18
g13
sg19
S'/System/Library/Frameworks/Python.framework/Versions/2.7/Extras/lib/python/matplotlib/mpl-data/fonts/ttf/cmss10.ttf'
p132
sg21
g22
sbag7
(g8
g9
NtRp133
(dp134
g12
g13
sg14
S'Bitstream Vera Serif'
p135
sg16
I700
sg17
g13
sg18
g13
sg19
S'/System/Library/Frameworks/Python.framework/Versions/2.7/Extras/lib/python/matplotlib/mpl-data/fonts/ttf/VeraSeBd.ttf'
p136
sg21
g22
sbag7
(g8
g9
NtRp137
(dp138
g12
g13
sg14
S'STIXSizeTwoSym'
p139
sg16
I700
sg17
g13
sg18
g13
sg19
S'/System/Library/Frameworks/Python.framework/Versions/2.7/Extras/lib/python/matplotlib/mpl-data/fonts/ttf/STIXSizTwoSymBol.ttf'
p140
sg21
g22
sbag7
(g8
g9
NtRp141
(dp142
g12
g74
sg14
S'STIXNonUnicode'
p143
sg16
I400
sg17
g13
sg18
g13
sg19
S'/System/Library/Frameworks/Python.framework/Versions/2.7/Extras/lib/python/matplotlib/mpl-data/fonts/ttf/STIXNonUniIta.ttf'
p144
sg21
g22
sbag7
(g8
g9
NtRp145
(dp146
g12
g13
sg14
S'cmtt10'
p147
sg16
I400
sg17
g13
sg18
g13
sg19
S'/System/Library/Frameworks/Python.framework/Versions/2.7/Extras/lib/python/matplotlib/mpl-data/fonts/ttf/cmtt10.ttf'
p148
sg21
g22
sbag7
(g8
g9
NtRp149
(dp150
g12
g74
sg14
S'STIXGeneral'
p151
sg16
I700
sg17
g13
sg18
g13
sg19
S'/System/Library/Frameworks/Python.framework/Versions/2.7/Extras/lib/python/matplotlib/mpl-data/fonts/ttf/STIXGeneralBolIta.ttf'
p152
sg21
g22
sbag7
(g8
g9
NtRp153
(dp154
g12
g13
sg14
S'STIXSizeThreeSym'
p155
sg16
I400
sg17
g13
sg18
g13
sg19
S'/System/Library/Frameworks/Python.framework/Versions/2.7/Extras/lib/python/matplotlib/mpl-data/fonts/ttf/STIXSizThreeSymReg.ttf'
p156
sg21
g22
sbag7
(g8
g9
NtRp157
(dp158
g12
g13
sg14
S'Noto Sans Caucasian Albanian'
p159
sg16
I400
sg17
g13
sg18
g13
sg19
S'/System/Library/Fonts/Supplemental/NotoSansCaucasianAlbanian-Regular.ttf'
p160
sg21
g22
sbag7
(g8
g9
NtRp161
(dp162
g12
g13
sg14
S'Party LET'
p163
sg16
I400
sg17
g13
sg18
g13
sg19
S'/System/Library/Fonts/Supplemental/PartyLET-plain.ttf'
p164
sg21
g22
sbag7
(g8
g9
NtRp165
(dp166
g12
g13
sg14
S'Trattatello'
p167
sg16
I400
sg17
g13
sg18
g13
sg19
S'/System/Library/Fonts/Supplemental/Trattatello.ttf'
p168
sg21
g22
sbag7
(g8
g9
NtRp169
(dp170
g12
g13
sg14
S'BM Dohyeon'
p171
sg16
I400
sg17
g13
sg18
g13
sg19
S'/System/Library/AssetsV2/com_apple_MobileAsset_Font7/0261f7b61f7cf2a9561694fc996a1e2ab9b517bb.asset/AssetData/BMDoHyeon-Regular.otf'
p172
sg21
g22
sbag7
(g8
g9
NtRp173
(dp174
g12
g13
sg14
S'Arial Narrow'
p175
sg16
I400
sg17
S'condensed'
p176
sg18
g13
sg19
S'/System/Library/Fonts/Supplemental/Arial Narrow.ttf'
p177
sg21
g22
sbag7
(g8
g9
NtRp178
(dp179
g12
g13
sg14
S'STIXSizeTwoSym'
p180
sg16
I700
sg17
g13
sg18
g13
sg19
S'/System/Library/Fonts/Supplemental/STIXSizTwoSymBol.otf'
p181
sg21
g22
sbag7
(g8
g9
NtRp182
(dp183
g12
g13
sg14
S'Noto Sans Cypriot'
p184
sg16
I400
sg17
g13
sg18
g13
sg19
S'/System/Library/Fonts/Supplemental/NotoSansCypriot-Regular.ttf'
p185
sg21
g22
sbag7
(g8
g9
NtRp186
(dp187
g12
g74
sg14
S'System Font'
p188
sg16
I400
sg17
g13
sg18
g13
sg19
S'/System/Library/Fonts/SFNSItalic.ttf'
p189
sg21
g22
sbag7
(g8
g9
NtRp190
(dp191
g12
g13
sg14
S'Mishafi'
p192
sg16
I400
sg17
g13
sg18
g13
sg19
S'/System/Library/Fonts/Supplemental/Mishafi.ttf'
p193
sg21
g22
sbag7
(g8
g9
NtRp194
(dp195
g12
g13
sg14
S'Arial Unicode MS'
p196
sg16
I400
sg17
g13
sg18
g13
sg19
S'/Library/Fonts/Arial Unicode.ttf'
p197
sg21
g22
sbag7
(g8
g9
NtRp198
(dp199
g12
g13
sg14
S'Noto Sans Thaana'
p200
sg16
I400
sg17
g13
sg18
g13
sg19
S'/System/Library/Fonts/Supplemental/NotoSansThaana-Regular.ttf'
p201
sg21
g22
sbag7
(g8
g9
NtRp202
(dp203
g12
g74
sg14
S'STIXGeneral'
p204
sg16
I700
sg17
g13
sg18
g13
sg19
S'/System/Library/Fonts/Supplemental/STIXGeneralBolIta.otf'
p205
sg21
g22
sbag7
(g8
g9
NtRp206
(dp207
g12
g13
sg14
S'Comic Sans MS'
p208
sg16
I400
sg17
g13
sg18
g13
sg19
S'/System/Library/Fonts/Supplemental/Comic Sans MS.ttf'
p209
sg21
g22
sbag7
(g8
g9
NtRp210
(dp211
g12
g13
sg14
S'Noto Sans Palmyrene'
p212
sg16
I400
sg17
g13
sg18
g13
sg19
S'/System/Library/Fonts/Supplemental/NotoSansPalmyrene-Regular.ttf'
p213
sg21
g22
sbag7
(g8
g9
NtRp214
(dp215
g12
g74
sg14
S'Courier New'
p216
sg16
I400
sg17
g13
sg18
g13
sg19
S'/System/Library/Fonts/Supplemental/Courier New Italic.ttf'
p217
sg21
g22
sbag7
(g8
g9
NtRp218
(dp219
g12
g13
sg14
S'Krungthep'
p220
sg16
I400
sg17
g13
sg18
g13
sg19
S'/System/Library/Fonts/Supplemental/Krungthep.ttf'
p221
sg21
g22
sbag7
(g8
g9
NtRp222
(dp223
g12
g13
sg14
S'STIXSizeThreeSym'
p224
sg16
I700
sg17
g13
sg18
g13
sg19
S'/System/Library/Fonts/Supplemental/STIXSizThreeSymBol.otf'
p225
sg21
g22
sbag7
(g8
g9
NtRp226
(dp227
g12
g13
sg14
S'Luminari'
p228
sg16
I400
sg17
g13
sg18
g13
sg19
S'/System/Library/Fonts/Supplemental/Luminari.ttf'
p229
sg21
g22
sbag7
(g8
g9
NtRp230
(dp231
g12
g13
sg14
S'STHeiti'
p232
sg16
I400
sg17
g13
sg18
g13
sg19
S'/System/Library/AssetsV2/com_apple_MobileAsset_Font7/f0706a236683628e16427c6569e441423faaaa93.asset/AssetData/STXIHEI.ttf'
p233
sg21
g22
sbag7
(g8
g9
NtRp234
(dp235
g12
g13
sg14
S'Noto Sans Siddham'
p236
sg16
I400
sg17
g13
sg18
g13
sg19
S'/System/Library/Fonts/Supplemental/NotoSansSiddham-Regular.ttf'
p237
sg21
g22
sbag7
(g8
g9
NtRp238
(dp239
g12
g13
sg14
S'Gurmukhi MT'
p240
sg16
I400
sg17
g13
sg18
g13
sg19
S'/System/Library/Fonts/Supplemental/Gurmukhi.ttf'
p241
sg21
g22
sbag7
(g8
g9
NtRp242
(dp243
g12
g13
sg14
S'Apple LiGothic'
p244
sg16
I500
sg17
g13
sg18
g13
sg19
S'/System/Library/AssetsV2/com_apple_MobileAsset_Font7/de97612eef4e3cf8ee8e5c0ebd6fd879bbecd23a.asset/AssetData/AppleLiGothic-Medium.ttf'
p245
sg21
g22
sbag7
(g8
g9
NtRp246
(dp247
g12
g13
sg14
S'Noto Sans Inscriptional Parthian'
p248
sg16
I400
sg17
g13
sg18
g13
sg19
S'/System/Library/Fonts/Supplemental/NotoSansInscriptionalParthian-Regular.ttf'
p249
sg21
g22
sbag7
(g8
g9
NtRp250
(dp251
g12
g13
sg14
S'STIXIntegralsSm'
p252
sg16
I700
sg17
g13
sg18
g13
sg19
S'/System/Library/Fonts/Supplemental/STIXIntSmBol.otf'
p253
sg21
g22
sbag7
(g8
g9
NtRp254
(dp255
g12
g13
sg14
S'STIXNonUnicode'
p256
sg16
I700
sg17
g13
sg18
g13
sg19
S'/System/Library/Fonts/Supplemental/STIXNonUniBol.otf'
p257
sg21
g22
sbag7
(g8
g9
NtRp258
(dp259
g12
g13
sg14
S'STIXIntegralsUp'
p260
sg16
I700
sg17
g13
sg18
g13
sg19
S'/System/Library/Fonts/Supplemental/STIXIntUpBol.otf'
p261
sg21
g22
sbag7
(g8
g9
NtRp262
(dp263
g12
g13
sg14
S'Microsoft Sans Serif'
p264
sg16
I400
sg17
g13
sg18
g13
sg19
S'/System/Library/Fonts/Supplemental/Microsoft Sans Serif.ttf'
p265
sg21
g22
sbag7
(g8
g9
NtRp266
(dp267
g12
g13
sg14
S'Chalkduster'
p268
sg16
I400
sg17
g13
sg18
g13
sg19
S'/System/Library/Fonts/Supplemental/Chalkduster.ttf'
p269
sg21
g22
sbag7
(g8
g9
NtRp270
(dp271
g12
g13
sg14
S'Trebuchet MS'
p272
sg16
I700
sg17
g13
sg18
g13
sg19
S'/System/Library/Fonts/Supplemental/Trebuchet MS Bold.ttf'
p273
sg21
g22
sbag7
(g8
g9
NtRp274
(dp275
g12
g13
sg14
S'BM Jua'
p276
sg16
I400
sg17
g13
sg18
g13
sg19
S'/System/Library/AssetsV2/com_apple_MobileAsset_Font7/be500dfb81109622b25552bf40ef83b767d2683c.asset/AssetData/BMJua-Regular.otf'
p277
sg21
g22
sbag7
(g8
g9
NtRp278
(dp279
g12
g13
sg14
S'Zapf Dingbats'
p280
sg16
I400
sg17
g13
sg18
g13
sg19
S'/System/Library/Fonts/ZapfDingbats.ttf'
p281
sg21
g22
sbag7
(g8
g9
NtRp282
(dp283
g12
g74
sg14
S'STIXGeneral'
p284
sg16
I400
sg17
g13
sg18
g13
sg19
S'/System/Library/Fonts/Supplemental/STIXGeneralItalic.otf'
p285
sg21
g22
sbag7
(g8
g9
NtRp286
(dp287
g12
g74
sg14
S'Courier New'
p288
sg16
I700
sg17
g13
sg18
g13
sg19
S'/System/Library/Fonts/Supplemental/Courier New Bold Italic.ttf'
p289
sg21
g22
sbag7
(g8
g9
NtRp290
(dp291
g12
g13
sg14
S'Verdana'
p292
sg16
I400
sg17
g13
sg18
g13
sg19
S'/System/Library/Fonts/Supplemental/Verdana.ttf'
p293
sg21
g22
sbag7
(g8
g9
NtRp294
(dp295
g12
g13
sg14
S'Noto Serif Ahom'
p296
sg16
I400
sg17
g13
sg18
g13
sg19
S'/System/Library/Fonts/Supplemental/NotoSerifAhom-Regular.ttf'
p297
sg21
g22
sbag7
(g8
g9
NtRp298
(dp299
g12
g13
sg14
S'Osaka'
p300
sg16
I400
sg17
g13
sg18
g13
sg19
S'/System/Library/AssetsV2/com_apple_MobileAsset_Font7/0818d874bf1d0e24a1fe62e79f407717792c5ee1.asset/AssetData/OsakaMono.ttf'
p301
sg21
g22
sbag7
(g8
g9
NtRp302
(dp303
g12
g13
sg14
S'Trebuchet MS'
p304
sg16
I400
sg17
g13
sg18
g13
sg19
S'/System/Library/Fonts/Supplemental/Trebuchet MS.ttf'
p305
sg21
g22
sbag7
(g8
g9
NtRp306
(dp307
g12
g13
sg14
S'Noto Sans Cham'
p308
sg16
I400
sg17
g13
sg18
g13
sg19
S'/System/Library/Fonts/Supplemental/NotoSansCham-Regular.ttf'
p309
sg21
g22
sbag7
(g8
g9
NtRp310
(dp311
g12
g74
sg14
S'Arial Narrow'
p312
sg16
I400
sg17
g176
sg18
g13
sg19
S'/System/Library/Fonts/Supplemental/Arial Narrow Italic.ttf'
p313
sg21
g22
sbag7
(g8
g9
NtRp314
(dp315
g12
g74
sg14
S'Georgia'
p316
sg16
I400
sg17
g13
sg18
g13
sg19
S'/System/Library/Fonts/Supplemental/Georgia Italic.ttf'
p317
sg21
g22
sbag7
(g8
g9
NtRp318
(dp319
g12
g13
sg14
S'Tahoma'
p320
sg16
I700
sg17
g13
sg18
g13
sg19
S'/System/Library/Fonts/Supplemental/Tahoma Bold.ttf'
p321
sg21
g22
sbag7
(g8
g9
NtRp322
(dp323
g12
g13
sg14
S'Noto Sans Lisu'
p324
sg16
I400
sg17
g13
sg18
g13
sg19
S'/System/Library/Fonts/Supplemental/NotoSansLisu-Regular.ttf'
p325
sg21
g22
sbag7
(g8
g9
NtRp326
(dp327
g12
g13
sg14
S'Lao Sangam MN'
p328
sg16
I400
sg17
g13
sg18
g13
sg19
S'/System/Library/Fonts/Supplemental/Lao Sangam MN.ttf'
p329
sg21
g22
sbag7
(g8
g9
NtRp330
(dp331
g12
g13
sg14
S'STIXIntegralsUp'
p332
sg16
I400
sg17
g13
sg18
g13
sg19
S'/System/Library/Fonts/Supplemental/STIXIntUpReg.otf'
p333
sg21
g22
sbag7
(g8
g9
NtRp334
(dp335
g12
g13
sg14
S'STIXIntegralsUpSm'
p336
sg16
I400
sg17
g13
sg18
g13
sg19
S'/System/Library/Fonts/Supplemental/STIXIntUpSmReg.otf'
p337
sg21
g22
sbag7
(g8
g9
NtRp338
(dp339
g12
g13
sg14
S'PCMyungjo'
p340
sg16
I400
sg17
g13
sg18
g13
sg19
S'/System/Library/AssetsV2/com_apple_MobileAsset_Font7/c2cf5e684236b5395fd48d6ccf0e3b3191ce83a0.asset/AssetData/PCmyoungjo.ttf'
p341
sg21
g22
sbag7
(g8
g9
NtRp342
(dp343
g12
g13
sg14
S'AppleMyungjo'
p344
sg16
I400
sg17
g13
sg18
g13
sg19
S'/System/Library/Fonts/Supplemental/AppleMyungjo.ttf'
p345
sg21
g22
sbag7
(g8
g9
NtRp346
(dp347
g12
g13
sg14
S'Noto Sans Bhaiksuki'
p348
sg16
I400
sg17
g13
sg18
g13
sg19
S'/System/Library/Fonts/Supplemental/NotoSansBhaiksuki-Regular.ttf'
p349
sg21
g22
sbag7
(g8
g9
NtRp350
(dp351
g12
g13
sg14
S'Georgia'
p352
sg16
I400
sg17
g13
sg18
g13
sg19
S'/System/Library/Fonts/Supplemental/Georgia.ttf'
p353
sg21
g22
sbag7
(g8
g9
NtRp354
(dp355
g12
g13
sg14
S'Noto Sans Javanese'
p356
sg16
I400
sg17
g13
sg18
g13
sg19
S'/System/Library/Fonts/Supplemental/NotoSansJavanese-Regular.otf'
p357
sg21
g22
sbag7
(g8
g9
NtRp358
(dp359
g12
g13
sg14
S'HeadLineA'
p360
sg16
I400
sg17
g13
sg18
g13
sg19
S'/System/Library/AssetsV2/com_apple_MobileAsset_Font7/de4b2bad515a67ab2d11e39fd896b1e189252a43.asset/AssetData/HeadlineA.ttf'
p361
sg21
g22
sbag7
(g8
g9
NtRp362
(dp363
g12
g13
sg14
S'Herculanum'
p364
sg16
I400
sg17
g13
sg18
g13
sg19
S'/System/Library/Fonts/Supplemental/Herculanum.ttf'
p365
sg21
g22
sbag7
(g8
g9
NtRp366
(dp367
g12
g13
sg14
S'System Font'
p368
sg16
I400
sg17
g13
sg18
g13
sg19
S'/System/Library/Fonts/SFNS.ttf'
p369
sg21
g22
sbag7
(g8
g9
NtRp370
(dp371
g12
g13
sg14
S'STIXSizeOneSym'
p372
sg16
I700
sg17
g13
sg18
g13
sg19
S'/System/Library/Fonts/Supplemental/STIXSizOneSymBol.otf'
p373
sg21
g22
sbag7
(g8
g9
NtRp374
(dp375
g12
g13
sg14
S'Noto Sans Miao'
p376
sg16
I400
sg17
g13
sg18
g13
sg19
S'/System/Library/Fonts/Supplemental/NotoSansMiao-Regular.ttf'
p377
sg21
g22
sbag7
(g8
g9
NtRp378
(dp379
g12
g13
sg14
S'Noto Sans Tagalog'
p380
sg16
I400
sg17
g13
sg18
g13
sg19
S'/System/Library/Fonts/Supplemental/NotoSansTagalog-Regular.ttf'
p381
sg21
g22
sbag7
(g8
g9
NtRp382
(dp383
g12
g13
sg14
S'Noto Sans Marchen'
p384
sg16
I400
sg17
g13
sg18
g13
sg19
S'/System/Library/Fonts/Supplemental/NotoSansMarchen-Regular.ttf'
p385
sg21
g22
sbag7
(g8
g9
NtRp386
(dp387
g12
g13
sg14
S'Noto Sans Old Permic'
p388
sg16
I400
sg17
g13
sg18
g13
sg19
S'/System/Library/Fonts/Supplemental/NotoSansOldPermic-Regular.ttf'
p389
sg21
g22
sbag7
(g8
g9
NtRp390
(dp391
g12
g13
sg14
S'GungSeo'
p392
sg16
I400
sg17
g13
sg18
g13
sg19
S'/System/Library/AssetsV2/com_apple_MobileAsset_Font7/f879347736afb6e4e0880bcede9df92492c0f040.asset/AssetData/Gungseouche.ttf'
p393
sg21
g22
sbag7
(g8
g9
NtRp394
(dp395
g12
g13
sg14
S'Noto Sans Syriac'
p396
sg16
I400
sg17
g13
sg18
g13
sg19
S'/System/Library/Fonts/Supplemental/NotoSansSyriac-Regular.ttf'
p397
sg21
g22
sbag7
(g8
g9
NtRp398
(dp399
g12
g74
sg14
S'STIXNonUnicode'
p400
sg16
I400
sg17
g13
sg18
g13
sg19
S'/System/Library/Fonts/Supplemental/STIXNonUniIta.otf'
p401
sg21
g22
sbag7
(g8
g9
NtRp402
(dp403
g12
g13
sg14
S'Wawati SC'
p404
sg16
I400
sg17
g13
sg18
g13
sg19
S'/System/Library/AssetsV2/com_apple_MobileAsset_Font7/18189590ed3a5f46cef20ed4d1cec2611dca13ff.asset/AssetData/WawaSC-Regular.otf'
p405
sg21
g22
sbag7
(g8
g9
NtRp406
(dp407
g12
g13
sg14
S'Apple Symbols'
p408
sg16
I400
sg17
g13
sg18
g13
sg19
S'/System/Library/Fonts/Apple Symbols.ttf'
p409
sg21
g22
sbag7
(g8
g9
NtRp410
(dp411
g12
g13
sg14
S'Noto Sans Kharoshthi'
p412
sg16
I400
sg17
g13
sg18
g13
sg19
S'/System/Library/Fonts/Supplemental/NotoSansKharoshthi-Regular.ttf'
p413
sg21
g22
sbag7
(g8
g9
NtRp414
(dp415
g12
g13
sg14
S'Zapfino'
p416
sg16
I400
sg17
g13
sg18
g13
sg19
S'/System/Library/Fonts/Supplemental/Zapfino.ttf'
p417
sg21
g22
sbag7
(g8
g9
NtRp418
(dp419
g12
g13
sg14
S'Noto Sans Khudawadi'
p420
sg16
I400
sg17
g13
sg18
g13
sg19
S'/System/Library/Fonts/Supplemental/NotoSansKhudawadi-Regular.ttf'
p421
sg21
g22
sbag7
(g8
g9
NtRp422
(dp423
g12
g13
sg14
S'.SF Compact'
p424
sg16
I400
sg17
g13
sg18
g13
sg19
S'/System/Library/Fonts/SFCompact.ttf'
p425
sg21
g22
sbag7
(g8
g9
NtRp426
(dp427
g12
g13
sg14
S'STIXSizeTwoSym'
p428
sg16
I400
sg17
g13
sg18
g13
sg19
S'/System/Library/Fonts/Supplemental/STIXSizTwoSymReg.otf'
p429
sg21
g22
sbag7
(g8
g9
NtRp430
(dp431
g12
g13
sg14
S'Academy Engraved LET'
p432
sg16
I400
sg17
g13
sg18
g13
sg19
S'/System/Library/Fonts/Supplemental/Academy Engraved LET Fonts.ttf'
p433
sg21
g22
sbag7
(g8
g9
NtRp434
(dp435
g12
g13
sg14
S'BiauKai'
p436
sg16
I400
sg17
g13
sg18
g13
sg19
S'/System/Library/AssetsV2/com_apple_MobileAsset_Font7/2371acc1476f56b565e773159763b5dc3b3d6a1e.asset/AssetData/BiauKai.ttf'
p437
sg21
g22
sbag7
(g8
g9
NtRp438
(dp439
g12
g13
sg14
S'Noto Sans Brahmi'
p440
sg16
I400
sg17
g13
sg18
g13
sg19
S'/System/Library/Fonts/Supplemental/NotoSansBrahmi-Regular.ttf'
p441
sg21
g22
sbag7
(g8
g9
NtRp442
(dp443
g12
g13
sg14
S'Noto Sans Saurashtra'
p444
sg16
I400
sg17
g13
sg18
g13
sg19
S'/System/Library/Fonts/Supplemental/NotoSansSaurashtra-Regular.ttf'
p445
sg21
g22
sbag7
(g8
g9
NtRp446
(dp447
g12
g74
sg14
S'Arial Narrow'
p448
sg16
I700
sg17
g176
sg18
g13
sg19
S'/System/Library/Fonts/Supplemental/Arial Narrow Bold Italic.ttf'
p449
sg21
g22
sbag7
(g8
g9
NtRp450
(dp451
g12
g13
sg14
S'Noto Sans Pahawh Hmong'
p452
sg16
I400
sg17
g13
sg18
g13
sg19
S'/System/Library/Fonts/Supplemental/NotoSansPahawhHmong-Regular.ttf'
p453
sg21
g22
sbag7
(g8
g9
NtRp454
(dp455
g12
g13
sg14
S'Plantagenet Cherokee'
p456
sg16
I400
sg17
g13
sg18
g13
sg19
S'/System/Library/Fonts/Supplemental/PlantagenetCherokee.ttf'
p457
sg21
g22
sbag7
(g8
g9
NtRp458
(dp459
g12
g13
sg14
S'Noto Sans Ugaritic'
p460
sg16
I400
sg17
g13
sg18
g13
sg19
S'/System/Library/Fonts/Supplemental/NotoSansUgaritic-Regular.ttf'
p461
sg21
g22
sbag7
(g8
g9
NtRp462
(dp463
g12
g13
sg14
S'Apple Braille'
p464
sg16
I400
sg17
g13
sg18
g13
sg19
S'/System/Library/Fonts/Apple Braille Outline 8 Dot.ttf'
p465
sg21
g22
sbag7
(g8
g9
NtRp466
(dp467
g12
g13
sg14
S'Courier New'
p468
sg16
I700
sg17
g13
sg18
g13
sg19
S'/System/Library/Fonts/Supplemental/Courier New Bold.ttf'
p469
sg21
g22
sbag7
(g8
g9
NtRp470
(dp471
g12
g13
sg14
S'Georgia'
p472
sg16
I700
sg17
g13
sg18
g13
sg19
S'/System/Library/Fonts/Supplemental/Georgia Bold.ttf'
p473
sg21
g22
sbag7
(g8
g9
NtRp474
(dp475
g12
g13
sg14
S'Noto Sans Mende Kikakui'
p476
sg16
I400
sg17
g13
sg18
g13
sg19
S'/System/Library/Fonts/Supplemental/NotoSansMendeKikakui-Regular.ttf'
p477
sg21
g22
sbag7
(g8
g9
NtRp478
(dp479
g12
g13
sg14
S'Arial Black'
p480
sg16
I900
sg17
g13
sg18
g13
sg19
S'/System/Library/Fonts/Supplemental/Arial Black.ttf'
p481
sg21
g22
sbag7
(g8
g9
NtRp482
(dp483
g12
g13
sg14
S'Noto Sans Kaithi'
p484
sg16
I400
sg17
g13
sg18
g13
sg19
S'/System/Library/Fonts/Supplemental/NotoSansKaithi-Regular.ttf'
p485
sg21
g22
sbag7
(g8
g9
NtRp486
(dp487
g12
g13
sg14
S'AppleGothic'
p488
sg16
I400
sg17
g13
sg18
g13
sg19
S'/System/Library/Fonts/Supplemental/AppleGothic.ttf'
p489
sg21
g22
sbag7
(g8
g9
NtRp490
(dp491
g12
g13
sg14
S'Noto Sans Avestan'
p492
sg16
I400
sg17
g13
sg18
g13
sg19
S'/System/Library/Fonts/Supplemental/NotoSansAvestan-Regular.ttf'
p493
sg21
g22
sbag7
(g8
g9
NtRp494
(dp495
g12
g13
sg14
S'Noto Sans Buhid'
p496
sg16
I400
sg17
g13
sg18
g13
sg19
S'/System/Library/Fonts/Supplemental/NotoSansBuhid-Regular.ttf'
p497
sg21
g22
sbag7
(g8
g9
NtRp498
(dp499
g12
g13
sg14
S'Noto Sans Hanunoo'
p500
sg16
I400
sg17
g13
sg18
g13
sg19
S'/System/Library/Fonts/Supplemental/NotoSansHanunoo-Regular.ttf'
p501
sg21
g22
sbag7
(g8
g9
NtRp502
(dp503
g12
g13
sg14
S'Noto Serif Yezidi'
p504
sg16
I400
sg17
g13
sg18
g13
sg19
S'/System/Library/Fonts/Supplemental/NotoSerifYezidi-Regular.otf'
p505
sg21
g22
sbag7
(g8
g9
NtRp506
(dp507
g12
g13
sg14
S'Noto Sans Glagolitic'
p508
sg16
I400
sg17
g13
sg18
g13
sg19
S'/System/Library/Fonts/Supplemental/NotoSansGlagolitic-Regular.ttf'
p509
sg21
g22
sbag7
(g8
g9
NtRp510
(dp511
g12
g74
sg14
S'Georgia'
p512
sg16
I700
sg17
g13
sg18
g13
sg19
S'/System/Library/Fonts/Supplemental/Georgia Bold Italic.ttf'
p513
sg21
g22
sbag7
(g8
g9
NtRp514
(dp515
g12
g13
sg14
S'STIXIntegralsUpD'
p516
sg16
I400
sg17
g13
sg18
g13
sg19
S'/System/Library/Fonts/Supplemental/STIXIntUpDReg.otf'
p517
sg21
g22
sbag7
(g8
g9
NtRp518
(dp519
g12
g13
sg14
S'.SF Arabic'
p520
sg16
I400
sg17
g13
sg18
g13
sg19
S'/System/Library/Fonts/SFArabic.ttf'
p521
sg21
g22
sbag7
(g8
g9
NtRp522
(dp523
g12
g13
sg14
S'Hoefler Text'
p524
sg16
I400
sg17
g13
sg18
g13
sg19
S'/System/Library/Fonts/Supplemental/Hoefler Text Ornaments.ttf'
p525
sg21
g22
sbag7
(g8
g9
NtRp526
(dp527
g12
g13
sg14
S'Weibei TC'
p528
sg16
I700
sg17
g13
sg18
g13
sg19
S'/System/Library/AssetsV2/com_apple_MobileAsset_Font7/0c723883d13f8442faf3adb131fc1eb91c7a1bf1.asset/AssetData/WeibeiTC-Bold.otf'
p529
sg21
g22
sbag7
(g8
g9
NtRp530
(dp531
g12
g13
sg14
S'Noto Sans NKo'
p532
sg16
I400
sg17
g13
sg18
g13
sg19
S'/System/Library/Fonts/Supplemental/NotoSansNKo-Regular.ttf'
p533
sg21
g22
sbag7
(g8
g9
NtRp534
(dp535
g12
g13
sg14
S'Noto Sans Osage'
p536
sg16
I400
sg17
g13
sg18
g13
sg19
S'/System/Library/Fonts/Supplemental/NotoSansOsage-Regular.ttf'
p537
sg21
g22
sbag7
(g8
g9
NtRp538
(dp539
g12
g13
sg14
S'Noto Sans Meetei Mayek'
p540
sg16
I400
sg17
g13
sg18
g13
sg19
S'/System/Library/Fonts/Supplemental/NotoSansMeeteiMayek-Regular.ttf'
p541
sg21
g22
sbag7
(g8
g9
NtRp542
(dp543
g12
g13
sg14
S'Impact'
p544
sg16
I400
sg17
g13
sg18
g13
sg19
S'/System/Library/Fonts/Supplemental/Impact.ttf'
p545
sg21
g22
sbag7
(g8
g9
NtRp546
(dp547
g12
g13
sg14
S'Noto Sans Cuneiform'
p548
sg16
I400
sg17
g13
sg18
g13
sg19
S'/System/Library/Fonts/Supplemental/NotoSansCuneiform-Regular.ttf'
p549
sg21
g22
sbag7
(g8
g9
NtRp550
(dp551
g12
g13
sg14
S'Noto Sans Tai Le'
p552
sg16
I400
sg17
g13
sg18
g13
sg19
S'/System/Library/Fonts/Supplemental/NotoSansTaiLe-Regular.ttf'
p553
sg21
g22
sbag7
(g8
g9
NtRp554
(dp555
g12
g13
sg14
S'.LastResort'
p556
sg16
I400
sg17
g13
sg18
g13
sg19
S'/System/Library/Fonts/LastResort.otf'
p557
sg21
g22
sbag7
(g8
g9
NtRp558
(dp559
g12
g13
sg14
S'Noto Sans Lydian'
p560
sg16
I400
sg17
g13
sg18
g13
sg19
S'/System/Library/Fonts/Supplemental/NotoSansLydian-Regular.ttf'
p561
sg21
g22
sbag7
(g8
g9
NtRp562
(dp563
g12
g13
sg14
S'Noto Sans Takri'
p564
sg16
I400
sg17
g13
sg18
g13
sg19
S'/System/Library/Fonts/Supplemental/NotoSansTakri-Regular.ttf'
p565
sg21
g22
sbag7
(g8
g9
NtRp566
(dp567
g12
g13
sg14
S'Silom'
p568
sg16
I400
sg17
g13
sg18
g13
sg19
S'/System/Library/Fonts/Supplemental/Silom.ttf'
p569
sg21
g22
sbag7
(g8
g9
NtRp570
(dp571
g12
g13
sg14
S'Noto Sans Old Persian'
p572
sg16
I400
sg17
g13
sg18
g13
sg19
S'/System/Library/Fonts/Supplemental/NotoSansOldPersian-Regular.ttf'
p573
sg21
g22
sbag7
(g8
g9
NtRp574
(dp575
g12
g13
sg14
S'Khmer Sangam MN'
p576
sg16
I400
sg17
g13
sg18
g13
sg19
S'/System/Library/Fonts/Supplemental/Khmer Sangam MN.ttf'
p577
sg21
g22
sbag7
(g8
g9
NtRp578
(dp579
g12
g13
sg14
S'Noto Sans Osmanya'
p580
sg16
I400
sg17
g13
sg18
g13
sg19
S'/System/Library/Fonts/Supplemental/NotoSansOsmanya-Regular.ttf'
p581
sg21
g22
sbag7
(g8
g9
NtRp582
(dp583
g12
g13
sg14
S'Noto Sans PhagsPa'
p584
sg16
I400
sg17
g13
sg18
g13
sg19
S'/System/Library/Fonts/Supplemental/NotoSansPhagsPa-Regular.ttf'
p585
sg21
g22
sbag7
(g8
g9
NtRp586
(dp587
g12
g13
sg14
S'Skia'
p588
sg16
I400
sg17
g13
sg18
g13
sg19
S'/System/Library/Fonts/Supplemental/Skia.ttf'
p589
sg21
g22
sbag7
(g8
g9
NtRp590
(dp591
g12
g13
sg14
S'Noto Sans Multani'
p592
sg16
I400
sg17
g13
sg18
g13
sg19
S'/System/Library/Fonts/Supplemental/NotoSansMultani-Regular.ttf'
p593
sg21
g22
sbag7
(g8
g9
NtRp594
(dp595
g12
g74
sg14
S'Arial'
p596
sg16
I400
sg17
g13
sg18
g13
sg19
S'/System/Library/Fonts/Supplemental/Arial Italic.ttf'
p597
sg21
g22
sbag7
(g8
g9
NtRp598
(dp599
g12
g13
sg14
S'Noto Sans Sundanese'
p600
sg16
I400
sg17
g13
sg18
g13
sg19
S'/System/Library/Fonts/Supplemental/NotoSansSundanese-Regular.ttf'
p601
sg21
g22
sbag7
(g8
g9
NtRp602
(dp603
g12
g13
sg14
S'Wingdings 2'
p604
sg16
I400
sg17
g13
sg18
g13
sg19
S'/System/Library/Fonts/Supplemental/Wingdings 2.ttf'
p605
sg21
g22
sbag7
(g8
g9
NtRp606
(dp607
g12
g13
sg14
S'Yuppy TC'
p608
sg16
I400
sg17
g13
sg18
g13
sg19
S'/System/Library/AssetsV2/com_apple_MobileAsset_Font7/e28431125242b9a298de3296370abdab4a7e8666.asset/AssetData/YuppyTC-Regular.otf'
p609
sg21
g22
sbag7
(g8
g9
NtRp610
(dp611
g12
g13
sg14
S'STIXGeneral'
p612
sg16
I400
sg17
g13
sg18
g13
sg19
S'/System/Library/Fonts/Supplemental/STIXGeneral.otf'
p613
sg21
g22
sbag7
(g8
g9
NtRp614
(dp615
g12
g13
sg14
S'.SF NS Rounded'
p616
sg16
I400
sg17
g13
sg18
g13
sg19
S'/System/Library/Fonts/SFNSRounded.ttf'
p617
sg21
g22
sbag7
(g8
g9
NtRp618
(dp619
g12
g13
sg14
S'DIN Alternate'
p620
sg16
I700
sg17
g13
sg18
g13
sg19
S'/System/Library/Fonts/Supplemental/DIN Alternate Bold.ttf'
p621
sg21
g22
sbag7
(g8
g9
NtRp622
(dp623
g12
g13
sg14
S'Noto Sans Wancho'
p624
sg16
I400
sg17
g13
sg18
g13
sg19
S'/System/Library/Fonts/Supplemental/NotoSansWancho-Regular.ttf'
p625
sg21
g22
sbag7
(g8
g9
NtRp626
(dp627
g12
g13
sg14
S'STIXSizeFourSym'
p628
sg16
I700
sg17
g13
sg18
g13
sg19
S'/System/Library/Fonts/Supplemental/STIXSizFourSymBol.otf'
p629
sg21
g22
sbag7
(g8
g9
NtRp630
(dp631
g12
g13
sg14
S'Noto Sans Old South Arabian'
p632
sg16
I400
sg17
g13
sg18
g13
sg19
S'/System/Library/Fonts/Supplemental/NotoSansOldSouthArabian-Regular.ttf'
p633
sg21
g22
sbag7
(g8
g9
NtRp634
(dp635
g12
g13
sg14
S'Noto Sans Coptic'
p636
sg16
I400
sg17
g13
sg18
g13
sg19
S'/System/Library/Fonts/Supplemental/NotoSansCoptic-Regular.ttf'
p637
sg21
g22
sbag7
(g8
g9
NtRp638
(dp639
g12
g13
sg14
S'STIXIntegralsUpSm'
p640
sg16
I700
sg17
g13
sg18
g13
sg19
S'/System/Library/Fonts/Supplemental/STIXIntUpSmBol.otf'
p641
sg21
g22
sbag7
(g8
g9
NtRp642
(dp643
g12
g13
sg14
S'Apple Braille'
p644
sg16
I400
sg17
g13
sg18
g13
sg19
S'/System/Library/Fonts/Apple Braille Pinpoint 8 Dot.ttf'
p645
sg21
g22
sbag7
(g8
g9
NtRp646
(dp647
g12
g13
sg14
S'Bodoni Ornaments'
p648
sg16
I400
sg17
g13
sg18
g13
sg19
S'/System/Library/Fonts/Supplemental/Bodoni Ornaments.ttf'
p649
sg21
g22
sbag7
(g8
g9
NtRp650
(dp651
g12
g13
sg14
S'Apple Braille'
p652
sg16
I400
sg17
g13
sg18
g13
sg19
S'/System/Library/Fonts/Apple Braille Outline 6 Dot.ttf'
p653
sg21
g22
sbag7
(g8
g9
NtRp654
(dp655
g12
g13
sg14
S'Toppan Bunkyu Midashi Gothic'
p656
sg16
I700
sg17
g13
sg18
g13
sg19
S'/System/Library/AssetsV2/com_apple_MobileAsset_Font7/938fc4f0524ec9f143f1b39a4e63ff9585298376.asset/AssetData/ToppanBunkyuMidashiGothicStdN-ExtraBold.otf'
p657
sg21
g22
sbag7
(g8
g9
NtRp658
(dp659
g12
g13
sg14
S'Ayuthaya'
p660
sg16
I400
sg17
g13
sg18
g13
sg19
S'/System/Library/Fonts/Supplemental/Ayuthaya.ttf'
p661
sg21
g22
sbag7
(g8
g9
NtRp662
(dp663
g12
g74
sg14
S'Arial'
p664
sg16
I700
sg17
g13
sg18
g13
sg19
S'/System/Library/Fonts/Supplemental/Arial Bold Italic.ttf'
p665
sg21
g22
sbag7
(g8
g9
NtRp666
(dp667
g12
g13
sg14
S'.New York'
p668
sg16
I400
sg17
g13
sg18
g13
sg19
S'/System/Library/Fonts/NewYork.ttf'
p669
sg21
g22
sbag7
(g8
g9
NtRp670
(dp671
g12
g13
sg14
S'Verdana'
p672
sg16
I700
sg17
g13
sg18
g13
sg19
S'/System/Library/Fonts/Supplemental/Verdana Bold.ttf'
p673
sg21
g22
sbag7
(g8
g9
NtRp674
(dp675
g12
g13
sg14
S'LiHei Pro'
p676
sg16
I400
sg17
g13
sg18
g13
sg19
S'/System/Library/AssetsV2/com_apple_MobileAsset_Font7/3a9dbc8ddc8b85f43055a28fb5d551e905d43de2.asset/AssetData/LiHeiPro.ttf'
p677
sg21
g22
sbag7
(g8
g9
NtRp678
(dp679
g12
g13
sg14
S'Noto Sans Carian'
p680
sg16
I400
sg17
g13
sg18
g13
sg19
S'/System/Library/Fonts/Supplemental/NotoSansCarian-Regular.ttf'
p681
sg21
g22
sbag7
(g8
g9
NtRp682
(dp683
g12
g13
sg14
S'STIXNonUnicode'
p684
sg16
I400
sg17
g13
sg18
g13
sg19
S'/System/Library/Fonts/Supplemental/STIXNonUni.otf'
p685
sg21
g22
sbag7
(g8
g9
NtRp686
(dp687
g12
g13
sg14
S'.SF NS Mono'
p688
sg16
I400
sg17
g13
sg18
g13
sg19
S'/System/Library/Fonts/SFNSMonoItalic.ttf'
p689
sg21
g22
sbag7
(g8
g9
NtRp690
(dp691
g12
g13
sg14
S'STIXIntegralsUpD'
p692
sg16
I700
sg17
g13
sg18
g13
sg19
S'/System/Library/Fonts/Supplemental/STIXIntUpDBol.otf'
p693
sg21
g22
sbag7
(g8
g9
NtRp694
(dp695
g12
g13
sg14
S'Noto Sans Old Italic'
p696
sg16
I400
sg17
g13
sg18
g13
sg19
S'/System/Library/Fonts/Supplemental/NotoSansOldItalic-Regular.ttf'
p697
sg21
g22
sbag7
(g8
g9
NtRp698
(dp699
g12
g13
sg14
S'DIN Condensed'
p700
sg16
I700
sg17
g176
sg18
g13
sg19
S'/System/Library/Fonts/Supplemental/DIN Condensed Bold.ttf'
p701
sg21
g22
sbag7
(g8
g9
NtRp702
(dp703
g12
g13
sg14
S'Noto Sans Linear B'
p704
sg16
I400
sg17
g13
sg18
g13
sg19
S'/System/Library/Fonts/Supplemental/NotoSansLinearB-Regular.ttf'
p705
sg21
g22
sbag7
(g8
g9
NtRp706
(dp707
g12
g13
sg14
S'Noto Sans Elbasan'
p708
sg16
I400
sg17
g13
sg18
g13
sg19
S'/System/Library/Fonts/Supplemental/NotoSansElbasan-Regular.ttf'
p709
sg21
g22
sbag7
(g8
g9
NtRp710
(dp711
g12
g13
sg14
S'Noto Sans Gothic'
p712
sg16
I400
sg17
g13
sg18
g13
sg19
S'/System/Library/Fonts/Supplemental/NotoSansGothic-Regular.ttf'
p713
sg21
g22
sbag7
(g8
g9
NtRp714
(dp715
g12
g13
sg14
S'Toppan Bunkyu Mincho'
p716
sg16
I400
sg17
g13
sg18
g13
sg19
S'/System/Library/AssetsV2/com_apple_MobileAsset_Font7/8739f5cf483d3b2f04cbb451d310b68f0cf880d0.asset/AssetData/ToppanBunkyuMinchoPr6N-Regular.otf'
p717
sg21
g22
sbag7
(g8
g9
NtRp718
(dp719
g12
g13
sg14
S'STIXVariants'
p720
sg16
I400
sg17
g13
sg18
g13
sg19
S'/System/Library/Fonts/Supplemental/STIXVar.otf'
p721
sg21
g22
sbag7
(g8
g9
NtRp722
(dp723
g12
g13
sg14
S'Noto Sans Tagbanwa'
p724
sg16
I400
sg17
g13
sg18
g13
sg19
S'/System/Library/Fonts/Supplemental/NotoSansTagbanwa-Regular.ttf'
p725
sg21
g22
sbag7
(g8
g9
NtRp726
(dp727
g12
g13
sg14
S'Noto Sans Duployan'
p728
sg16
I400
sg17
g13
sg18
g13
sg19
S'/System/Library/Fonts/Supplemental/NotoSansDuployan-Regular.ttf'
p729
sg21
g22
sbag7
(g8
g9
NtRp730
(dp731
g12
g13
sg14
S'Wawati TC'
p732
sg16
I400
sg17
g13
sg18
g13
sg19
S'/System/Library/AssetsV2/com_apple_MobileAsset_Font7/3d7c99b85a518ffb479044c11185e47744b6448d.asset/AssetData/WawaTC-Regular.otf'
p733
sg21
g22
sbag7
(g8
g9
NtRp734
(dp735
g12
g13
sg14
S'Apple Braille'
p736
sg16
I400
sg17
g13
sg18
g13
sg19
S'/System/Library/Fonts/Apple Braille.ttf'
p737
sg21
g22
sbag7
(g8
g9
NtRp738
(dp739
g12
g13
sg14
S'Monaco'
p740
sg16
I400
sg17
g13
sg18
g13
sg19
S'/System/Library/Fonts/Monaco.ttf'
p741
sg21
g22
sbag7
(g8
g9
NtRp742
(dp743
g12
g13
sg14
S'Noto Sans Ol Chiki'
p744
sg16
I400
sg17
g13
sg18
g13
sg19
S'/System/Library/Fonts/Supplemental/NotoSansOlChiki-Regular.ttf'
p745
sg21
g22
sbag7
(g8
g9
NtRp746
(dp747
g12
g74
sg14
S'Trebuchet MS'
p748
sg16
I700
sg17
g13
sg18
g13
sg19
S'/System/Library/Fonts/Supplemental/Trebuchet MS Bold Italic.ttf'
p749
sg21
g22
sbag7
(g8
g9
NtRp750
(dp751
g12
g13
sg14
S'STIXSizeFourSym'
p752
sg16
I400
sg17
g13
sg18
g13
sg19
S'/System/Library/Fonts/Supplemental/STIXSizFourSymReg.otf'
p753
sg21
g22
sbag7
(g8
g9
NtRp754
(dp755
g12
g74
sg14
S'Verdana'
p756
sg16
I400
sg17
g13
sg18
g13
sg19
S'/System/Library/Fonts/Supplemental/Verdana Italic.ttf'
p757
sg21
g22
sbag7
(g8
g9
NtRp758
(dp759
g12
g13
sg14
S'STIXIntegralsD'
p760
sg16
I700
sg17
g13
sg18
g13
sg19
S'/System/Library/Fonts/Supplemental/STIXIntDBol.otf'
p761
sg21
g22
sbag7
(g8
g9
NtRp762
(dp763
g12
g13
sg14
S'Apple Chancery'
p764
sg16
I400
sg17
g13
sg18
g13
sg19
S'/System/Library/Fonts/Supplemental/Apple Chancery.ttf'
p765
sg21
g22
sbag7
(g8
g9
NtRp766
(dp767
g12
g13
sg14
S'Noto Sans Bassa Vah'
p768
sg16
I400
sg17
g13
sg18
g13
sg19
S'/System/Library/Fonts/Supplemental/NotoSansBassaVah-Regular.ttf'
p769
sg21
g22
sbag7
(g8
g9
NtRp770
(dp771
g12
g13
sg14
S'Noto Sans Tifinagh'
p772
sg16
I400
sg17
g13
sg18
g13
sg19
S'/System/Library/Fonts/Supplemental/NotoSansTifinagh-Regular.ttf'
p773
sg21
g22
sbag7
(g8
g9
NtRp774
(dp775
g12
g13
sg14
S'Noto Sans Sora Sompeng'
p776
sg16
I400
sg17
g13
sg18
g13
sg19
S'/System/Library/Fonts/Supplemental/NotoSansSoraSompeng-Regular.ttf'
p777
sg21
g22
sbag7
(g8
g9
NtRp778
(dp779
g12
g13
sg14
S'Noto Sans Linear A'
p780
sg16
I400
sg17
g13
sg18
g13
sg19
S'/System/Library/Fonts/Supplemental/NotoSansLinearA-Regular.ttf'
p781
sg21
g22
sbag7
(g8
g9
NtRp782
(dp783
g12
g13
sg14
S'Noto Sans Gunjala Gondi'
p784
sg16
I400
sg17
g13
sg18
g13
sg19
S'/System/Library/Fonts/Supplemental/NotoSansGunjalaGondi-Regular.otf'
p785
sg21
g22
sbag7
(g8
g9
NtRp786
(dp787
g12
g13
sg14
S'Noto Sans Rejang'
p788
sg16
I400
sg17
g13
sg18
g13
sg19
S'/System/Library/Fonts/Supplemental/NotoSansRejang-Regular.ttf'
p789
sg21
g22
sbag7
(g8
g9
NtRp790
(dp791
g12
g13
sg14
S'Noto Sans Meroitic'
p792
sg16
I400
sg17
g13
sg18
g13
sg19
S'/System/Library/Fonts/Supplemental/NotoSansMeroitic-Regular.ttf'
p793
sg21
g22
sbag7
(g8
g9
NtRp794
(dp795
g12
g13
sg14
S'Noto Sans Mro'
p796
sg16
I400
sg17
g13
sg18
g13
sg19
S'/System/Library/Fonts/Supplemental/NotoSansMro-Regular.ttf'
p797
sg21
g22
sbag7
(g8
g9
NtRp798
(dp799
g12
g74
sg14
S'STIXNonUnicode'
p800
sg16
I700
sg17
g13
sg18
g13
sg19
S'/System/Library/Fonts/Supplemental/STIXNonUniBolIta.otf'
p801
sg21
g22
sbag7
(g8
g9
NtRp802
(dp803
g12
g13
sg14
S'Noto Sans Chakma'
p804
sg16
I400
sg17
g13
sg18
g13
sg19
S'/System/Library/Fonts/Supplemental/NotoSansChakma-Regular.ttf'
p805
sg21
g22
sbag7
(g8
g9
NtRp806
(dp807
g12
g13
sg14
S'Noto Serif Balinese'
p808
sg16
I400
sg17
g13
sg18
g13
sg19
S'/System/Library/Fonts/Supplemental/NotoSerifBalinese-Regular.ttf'
p809
sg21
g22
sbag7
(g8
g9
NtRp810
(dp811
g12
g13
sg14
S'BM Hanna 11yrs Old'
p812
sg16
I400
sg17
g13
sg18
g13
sg19
S'/System/Library/AssetsV2/com_apple_MobileAsset_Font7/f0059ebd0704e246a1971c4892c45f38ad053413.asset/AssetData/BMHanna11yrs-Regular.otf'
p813
sg21
g22
sbag7
(g8
g9
NtRp814
(dp815
g12
g13
sg14
S'LingWai SC'
p816
sg16
I500
sg17
g13
sg18
g13
sg19
S'/System/Library/AssetsV2/com_apple_MobileAsset_Font7/e2c331b942cb338404a160a97a7cd6e8a31428e8.asset/AssetData/LingWaiSC-Medium.otf'
p817
sg21
g22
sbag7
(g8
g9
NtRp818
(dp819
g12
g13
sg14
S'Kai'
p820
sg16
I400
sg17
g13
sg18
g13
sg19
S'/System/Library/AssetsV2/com_apple_MobileAsset_Font7/28f00a24ba19995bab7249993e6e35d11011074a.asset/AssetData/Kai.ttf'
p821
sg21
g22
sbag7
(g8
g9
NtRp822
(dp823
g12
g13
sg14
S'Big Caslon'
p824
sg16
I500
sg17
g13
sg18
g13
sg19
S'/System/Library/Fonts/Supplemental/BigCaslon.ttf'
p825
sg21
g22
sbag7
(g8
g9
NtRp826
(dp827
g12
g13
sg14
S'Noto Sans Khojki'
p828
sg16
I400
sg17
g13
sg18
g13
sg19
S'/System/Library/Fonts/Supplemental/NotoSansKhojki-Regular.ttf'
p829
sg21
g22
sbag7
(g8
g9
NtRp830
(dp831
g12
g13
sg14
S'Noto Sans Sharada'
p832
sg16
I400
sg17
g13
sg18
g13
sg19
S'/System/Library/Fonts/Supplemental/NotoSansSharada-Regular.ttf'
p833
sg21
g22
sbag7
(g8
g9
NtRp834
(dp835
g12
g13
sg14
S'Noto Sans Batak'
p836
sg16
I400
sg17
g13
sg18
g13
sg19
S'/System/Library/Fonts/Supplemental/NotoSansBatak-Regular.ttf'
p837
sg21
g22
sbag7
(g8
g9
NtRp838
(dp839
g12
g13
sg14
S'Times New Roman'
p840
sg16
I700
sg17
g13
sg18
g13
sg19
S'/System/Library/Fonts/Supplemental/Times New Roman Bold.ttf'
p841
sg21
g22
sbag7
(g8
g9
NtRp842
(dp843
g12
g13
sg14
S'Noto Sans Phoenician'
p844
sg16
I400
sg17
g13
sg18
g13
sg19
S'/System/Library/Fonts/Supplemental/NotoSansPhoenician-Regular.ttf'
p845
sg21
g22
sbag7
(g8
g9
NtRp846
(dp847
g12
g13
sg14
S'Arial Narrow'
p848
sg16
I700
sg17
g176
sg18
g13
sg19
S'/System/Library/Fonts/Supplemental/Arial Narrow Bold.ttf'
p849
sg21
g22
sbag7
(g8
g9
NtRp850
(dp851
g12
g13
sg14
S'Toppan Bunkyu Midashi Mincho'
p852
sg16
I700
sg17
g13
sg18
g13
sg19
S'/System/Library/AssetsV2/com_apple_MobileAsset_Font7/40e56e4eafd8b4db78ffe316f64ac4bedba37b53.asset/AssetData/ToppanBunkyuMidashiMinchoStdN-ExtraBold.otf'
p853
sg21
g22
sbag7
(g8
g9
NtRp854
(dp855
g12
g13
sg14
S'Noto Sans Hanifi Rohingya'
p856
sg16
I400
sg17
g13
sg18
g13
sg19
S'/System/Library/Fonts/Supplemental/NotoSansHanifiRohingya-Regular.ttf'
p857
sg21
g22
sbag7
(g8
g9
NtRp858
(dp859
g12
g13
sg14
S'LiSong Pro'
p860
sg16
I400
sg17
g13
sg18
g13
sg19
S'/System/Library/AssetsV2/com_apple_MobileAsset_Font7/5a3fc034b64879656271c040cab38b65d4ea6548.asset/AssetData/LiSongPro.ttf'
p861
sg21
g22
sbag7
(g8
g9
NtRp862
(dp863
g12
g13
sg14
S'Arial'
p864
sg16
I400
sg17
g13
sg18
g13
sg19
S'/System/Library/Fonts/Supplemental/Arial.ttf'
p865
sg21
g22
sbag7
(g8
g9
NtRp866
(dp867
g12
g13
sg14
S'Noto Sans Hatran'
p868
sg16
I400
sg17
g13
sg18
g13
sg19
S'/System/Library/Fonts/Supplemental/NotoSansHatran-Regular.ttf'
p869
sg21
g22
sbag7
(g8
g9
NtRp870
(dp871
g12
g74
sg14
S'.New York'
p872
sg16
I400
sg17
g13
sg18
g13
sg19
S'/System/Library/Fonts/NewYorkItalic.ttf'
p873
sg21
g22
sbag7
(g8
g9
NtRp874
(dp875
g12
g13
sg14
S'Apple Braille'
p876
sg16
I400
sg17
g13
sg18
g13
sg19
S'/System/Library/Fonts/Apple Braille Pinpoint 6 Dot.ttf'
p877
sg21
g22
sbag7
(g8
g9
NtRp878
(dp879
g12
g13
sg14
S'Noto Sans Imperial Aramaic'
p880
sg16
I400
sg17
g13
sg18
g13
sg19
S'/System/Library/Fonts/Supplemental/NotoSansImperialAramaic-Regular.ttf'
p881
sg21
g22
sbag7
(g8
g9
NtRp882
(dp883
g12
g13
sg14
S'Noto Sans Inscriptional Pahlavi'
p884
sg16
I400
sg17
g13
sg18
g13
sg19
S'/System/Library/Fonts/Supplemental/NotoSansInscriptionalPahlavi-Regular.ttf'
p885
sg21
g22
sbag7
(g8
g9
NtRp886
(dp887
g12
g13
sg14
S'Symbol'
p888
sg16
I400
sg17
g13
sg18
g13
sg19
S'/System/Library/Fonts/Symbol.ttf'
p889
sg21
g22
sbag7
(g8
g9
NtRp890
(dp891
g12
g13
sg14
S'Noto Sans Newa'
p892
sg16
I400
sg17
g13
sg18
g13
sg19
S'/System/Library/Fonts/Supplemental/NotoSansNewa-Regular.ttf'
p893
sg21
g22
sbag7
(g8
g9
NtRp894
(dp895
g12
g13
sg14
S'Noto Sans Modi'
p896
sg16
I400
sg17
g13
sg18
g13
sg19
S'/System/Library/Fonts/Supplemental/NotoSansModi-Regular.ttf'
p897
sg21
g22
sbag7
(g8
g9
NtRp898
(dp899
g12
g13
sg14
S'STHeiti'
p900
sg16
I400
sg17
g13
sg18
g13
sg19
S'/System/Library/AssetsV2/com_apple_MobileAsset_Font7/eb257c12d1a51c8c661b89f30eec56cacf9b8987.asset/AssetData/STHEITI.ttf'
p901
sg21
g22
sbag7
(g8
g9
NtRp902
(dp903
g12
g74
sg14
S'Times New Roman'
p904
sg16
I500
sg17
g13
sg18
g13
sg19
S'/System/Library/Fonts/Supplemental/Times New Roman Italic.ttf'
p905
sg21
g22
sbag7
(g8
g9
NtRp906
(dp907
g12
g13
sg14
S'STIXIntegralsD'
p908
sg16
I400
sg17
g13
sg18
g13
sg19
S'/System/Library/Fonts/Supplemental/STIXIntDReg.otf'
p909
sg21
g22
sbag7
(g8
g9
NtRp910
(dp911
g12
g13
sg14
S'BM Hanna Pro'
p912
sg16
I400
sg17
g13
sg18
g13
sg19
S'/System/Library/AssetsV2/com_apple_MobileAsset_Font7/ba5946173475eb777df1e152b131838137ff080d.asset/AssetData/BMHannaPro-Regular.otf'
p913
sg21
g22
sbag7
(g8
g9
NtRp914
(dp915
g12
g13
sg14
S'.Keyboard'
p916
sg16
I400
sg17
g13
sg18
g13
sg19
S'/System/Library/Fonts/Keyboard.ttf'
p917
sg21
g22
sbag7
(g8
g9
NtRp918
(dp919
g12
g13
sg14
S'Noto Sans Yi'
p920
sg16
I400
sg17
g13
sg18
g13
sg19
S'/System/Library/Fonts/Supplemental/NotoSansYi-Regular.ttf'
p921
sg21
g22
sbag7
(g8
g9
NtRp922
(dp923
g12
g13
sg14
S'Bodoni 72 Smallcaps'
p924
sg16
I400
sg17
g13
sg18
g13
sg19
S'/System/Library/Fonts/Supplemental/Bodoni 72 Smallcaps Book.ttf'
p925
sg21
g22
sbag7
(g8
g9
NtRp926
(dp927
g12
g13
sg14
S'.SF Compact Rounded'
p928
sg16
I400
sg17
g13
sg18
g13
sg19
S'/System/Library/Fonts/SFCompactRounded.ttf'
p929
sg21
g22
sbag7
(g8
g9
NtRp930
(dp931
g12
g13
sg14
S'Noto Sans Nabataean'
p932
sg16
I400
sg17
g13
sg18
g13
sg19
S'/System/Library/Fonts/Supplemental/NotoSansNabataean-Regular.ttf'
p933
sg21
g22
sbag7
(g8
g9
NtRp934
(dp935
g12
g13
sg14
S'Noto Sans Adlam'
p936
sg16
I400
sg17
g13
sg18
g13
sg19
S'/System/Library/Fonts/Supplemental/NotoSansAdlam-Regular.ttf'
p937
sg21
g22
sbag7
(g8
g9
NtRp938
(dp939
g12
g13
sg14
S'Hei'
p940
sg16
I400
sg17
g13
sg18
g13
sg19
S'/System/Library/AssetsV2/com_apple_MobileAsset_Font7/62032b9b64a0e3a9121c50aeb2ed794e3e2c201f.asset/AssetData/Hei.ttf'
p941
sg21
g22
sbag7
(g8
g9
NtRp942
(dp943
g12
g13
sg14
S'Tahoma'
p944
sg16
I400
sg17
g13
sg18
g13
sg19
S'/System/Library/Fonts/Supplemental/Tahoma.ttf'
p945
sg21
g22
sbag7
(g8
g9
NtRp946
(dp947
g12
g13
sg14
S'Noto Sans Mongolian'
p948
sg16
I400
sg17
g13
sg18
g13
sg19
S'/System/Library/Fonts/Supplemental/NotoSansMongolian-Regular.ttf'
p949
sg21
g22
sbag7
(g8
g9
NtRp950
(dp951
g12
g13
sg14
S'Geneva'
p952
sg16
I400
sg17
g13
sg18
g13
sg19
S'/System/Library/Fonts/Geneva.ttf'
p953
sg21
g22
sbag7
(g8
g9
NtRp954
(dp955
g12
g13
sg14
S'Noto Sans Buginese'
p956
sg16
I400
sg17
g13
sg18
g13
sg19
S'/System/Library/Fonts/Supplemental/NotoSansBuginese-Regular.ttf'
p957
sg21
g22
sbag7
(g8
g9
NtRp958
(dp959
g12
g13
sg14
S'Noto Sans Egyptian Hieroglyphs'
p960
sg16
I400
sg17
g13
sg18
g13
sg19
S'/System/Library/Fonts/Supplemental/NotoSansEgyptianHieroglyphs-Regular.ttf'
p961
sg21
g22
sbag7
(g8
g9
NtRp962
(dp963
g12
g13
sg14
S'Noto Sans Old North Arabian'
p964
sg16
I400
sg17
g13
sg18
g13
sg19
S'/System/Library/Fonts/Supplemental/NotoSansOldNorthArabian-Regular.ttf'
p965
sg21
g22
sbag7
(g8
g9
NtRp966
(dp967
g12
g13
sg14
S'Noto Sans Pau Cin Hau'
p968
sg16
I400
sg17
g13
sg18
g13
sg19
S'/System/Library/Fonts/Supplemental/NotoSansPauCinHau-Regular.ttf'
p969
sg21
g22
sbag7
(g8
g9
NtRp970
(dp971
g12
g13
sg14
S'Wingdings 3'
p972
sg16
I400
sg17
g13
sg18
g13
sg19
S'/System/Library/Fonts/Supplemental/Wingdings 3.ttf'
p973
sg21
g22
sbag7
(g8
g9
NtRp974
(dp975
g12
g13
sg14
S'Noto Sans Lepcha'
p976
sg16
I400
sg17
g13
sg18
g13
sg19
S'/System/Library/Fonts/Supplemental/NotoSansLepcha-Regular.ttf'
p977
sg21
g22
sbag7
(g8
g9
NtRp978
(dp979
g12
g13
sg14
S'Noto Sans Syloti Nagri'
p980
sg16
I400
sg17
g13
sg18
g13
sg19
S'/System/Library/Fonts/Supplemental/NotoSansSylotiNagri-Regular.ttf'
p981
sg21
g22
sbag7
(g8
g9
NtRp982
(dp983
g12
g13
sg14
S'Arial Rounded MT Bold'
p984
sg16
I700
sg17
g13
sg18
g13
sg19
S'/System/Library/Fonts/Supplemental/Arial Rounded Bold.ttf'
p985
sg21
g22
sbag7
(g8
g9
NtRp986
(dp987
g12
g13
sg14
S'Noto Sans Psalter Pahlavi'
p988
sg16
I400
sg17
g13
sg18
g13
sg19
S'/System/Library/Fonts/Supplemental/NotoSansPsalterPahlavi-Regular.ttf'
p989
sg21
g22
sbag7
(g8
g9
NtRp990
(dp991
g12
g13
sg14
S'YuGothic'
p992
sg16
I700
sg17
g13
sg18
g13
sg19
S'/System/Library/AssetsV2/com_apple_MobileAsset_Font7/42062e40d643fdb5bb3fba917212352fb0690de0.asset/AssetData/YuGothic-Bold.otf'
p993
sg21
g22
sbag7
(g8
g9
NtRp994
(dp995
g12
g13
sg14
S'Diwan Thuluth'
p996
sg16
I400
sg17
g13
sg18
g13
sg19
S'/System/Library/Fonts/Supplemental/Diwan Thuluth.ttf'
p997
sg21
g22
sbag7
(g8
g9
NtRp998
(dp999
g12
g13
sg14
S'Noto Sans Manichaean'
p1000
sg16
I400
sg17
g13
sg18
g13
sg19
S'/System/Library/Fonts/Supplemental/NotoSansManichaean-Regular.ttf'
p1001
sg21
g22
sbag7
(g8
g9
NtRp1002
(dp1003
g12
g13
sg14
S'Weibei SC'
p1004
sg16
I700
sg17
g13
sg18
g13
sg19
S'/System/Library/AssetsV2/com_apple_MobileAsset_Font7/a8805b853edf89283dec908153a0015bdd1d00f8.asset/AssetData/WeibeiSC-Bold.otf'
p1005
sg21
g22
sbag7
(g8
g9
NtRp1006
(dp1007
g12
g13
sg14
S'Noto Sans Mahajani'
p1008
sg16
I400
sg17
g13
sg18
g13
sg19
S'/System/Library/Fonts/Supplemental/NotoSansMahajani-Regular.ttf'
p1009
sg21
g22
sbag7
(g8
g9
NtRp1010
(dp1011
g12
g13
sg14
S'YuGothic'
p1012
sg16
I500
sg17
g13
sg18
g13
sg19
S'/System/Library/AssetsV2/com_apple_MobileAsset_Font7/54ef167d6c8e99a69a0d41ce252cc5995ba47580.asset/AssetData/YuGothic-Medium.otf'
p1013
sg21
g22
sbag7
(g8
g9
NtRp1014
(dp1015
g12
g13
sg14
S'STIXIntegralsSm'
p1016
sg16
I400
sg17
g13
sg18
g13
sg19
S'/System/Library/Fonts/Supplemental/STIXIntSmReg.otf'
p1017
sg21
g22
sbag7
(g8
g9
NtRp1018
(dp1019
g12
g13
sg14
S'Apple LiSung'
p1020
sg16
I200
sg17
g13
sg18
g13
sg19
S'/System/Library/AssetsV2/com_apple_MobileAsset_Font7/2ae839cbaa0ff60fe6a1d8921a77c81adcec0646.asset/AssetData/AppleLiSung-Light.ttf'
p1021
sg21
g22
sbag7
(g8
g9
NtRp1022
(dp1023
g12
g13
sg14
S'Times New Roman'
p1024
sg16
I500
sg17
g13
sg18
g13
sg19
S'/System/Library/Fonts/Supplemental/Times New Roman.ttf'
p1025
sg21
g22
sbag7
(g8
g9
NtRp1026
(dp1027
g12
g13
sg14
S'Osaka'
p1028
sg16
I400
sg17
g13
sg18
g13
sg19
S'/System/Library/AssetsV2/com_apple_MobileAsset_Font7/a3f9a9e35bdf3babe03b2fd162051306fad439d6.asset/AssetData/Osaka.ttf'
p1029
sg21
g22
sbag7
(g8
g9
NtRp1030
(dp1031
g12
g13
sg14
S'Kokonor'
p1032
sg16
I400
sg17
g13
sg18
g13
sg19
S'/System/Library/Fonts/Supplemental/Kokonor.ttf'
p1033
sg21
g22
sbag7
(g8
g9
NtRp1034
(dp1035
g12
g13
sg14
S'BM Yeonsung'
p1036
sg16
I400
sg17
g13
sg18
g13
sg19
S'/System/Library/AssetsV2/com_apple_MobileAsset_Font7/7eb2afb6cbdb982371bb615d532a887629d99bf4.asset/AssetData/BMYeongSung-Regular.otf'
p1037
sg21
g22
sbag7
(g8
g9
NtRp1038
(dp1039
g12
g13
sg14
S'Andale Mono'
p1040
sg16
I400
sg17
g13
sg18
g13
sg19
S'/System/Library/Fonts/Supplemental/Andale Mono.ttf'
p1041
sg21
g22
sbag7
(g8
g9
NtRp1042
(dp1043
g12
g13
sg14
S'Noto Sans Old Turkic'
p1044
sg16
I400
sg17
g13
sg18
g13
sg19
S'/System/Library/Fonts/Supplemental/NotoSansOldTurkic-Regular.ttf'
p1045
sg21
g22
sbag7
(g8
g9
NtRp1046
(dp1047
g12
g74
sg14
S'Brush Script MT'
p1048
sg16
I400
sg17
g13
sg18
g13
sg19
S'/System/Library/Fonts/Supplemental/Brush Script.ttf'
p1049
sg21
g22
sbag7
(g8
g9
NtRp1050
(dp1051
g12
g13
sg14
S'Noto Sans Old Hungarian'
p1052
sg16
I400
sg17
g13
sg18
g13
sg19
S'/System/Library/Fonts/Supplemental/NotoSansOldHungarian-Regular.ttf'
p1053
sg21
g22
sbag7
(g8
g9
NtRp1054
(dp1055
g12
g13
sg14
S'STIXSizeFiveSym'
p1056
sg16
I400
sg17
g13
sg18
g13
sg19
S'/System/Library/Fonts/Supplemental/STIXSizFiveSymReg.otf'
p1057
sg21
g22
sbag7
(g8
g9
NtRp1058
(dp1059
g12
g13
sg14
S'STIXSizeThreeSym'
p1060
sg16
I400
sg17
g13
sg18
g13
sg19
S'/System/Library/Fonts/Supplemental/STIXSizThreeSymReg.otf'
p1061
sg21
g22
sbag7
(g8
g9
NtRp1062
(dp1063
g12
g13
sg14
S'Noto Sans Kayah Li'
p1064
sg16
I400
sg17
g13
sg18
g13
sg19
S'/System/Library/Fonts/Supplemental/NotoSansKayahLi-Regular.ttf'
p1065
sg21
g22
sbag7
(g8
g9
NtRp1066
(dp1067
g12
g13
sg14
S'Noto Sans Warang Citi'
p1068
sg16
I400
sg17
g13
sg18
g13
sg19
S'/System/Library/Fonts/Supplemental/NotoSansWarangCiti-Regular.ttf'
p1069
sg21
g22
sbag7
(g8
g9
NtRp1070
(dp1071
g12
g13
sg14
S'STIXVariants'
p1072
sg16
I700
sg17
g13
sg18
g13
sg19
S'/System/Library/Fonts/Supplemental/STIXVarBol.otf'
p1073
sg21
g22
sbag7
(g8
g9
NtRp1074
(dp1075
g12
g74
sg14
S'Times New Roman'
p1076
sg16
I700
sg17
g13
sg18
g13
sg19
S'/System/Library/Fonts/Supplemental/Times New Roman Bold Italic.ttf'
p1077
sg21
g22
sbag7
(g8
g9
NtRp1078
(dp1079
g12
g13
sg14
S'Webdings'
p1080
sg16
I400
sg17
g13
sg18
g13
sg19
S'/System/Library/Fonts/Supplemental/Webdings.ttf'
p1081
sg21
g22
sbag7
(g8
g9
NtRp1082
(dp1083
g12
g13
sg14
S'Noto Sans Mandaic'
p1084
sg16
I400
sg17
g13
sg18
g13
sg19
S'/System/Library/Fonts/Supplemental/NotoSansMandaic-Regular.ttf'
p1085
sg21
g22
sbag7
(g8
g9
NtRp1086
(dp1087
g12
g13
sg14
S'Bradley Hand'
p1088
sg16
I700
sg17
g13
sg18
g13
sg19
S'/System/Library/Fonts/Supplemental/Bradley Hand Bold.ttf'
p1089
sg21
g22
sbag7
(g8
g9
NtRp1090
(dp1091
g12
g13
sg14
S'Noto Sans Tai Viet'
p1092
sg16
I400
sg17
g13
sg18
g13
sg19
S'/System/Library/Fonts/Supplemental/NotoSansTaiViet-Regular.ttf'
p1093
sg21
g22
sbag7
(g8
g9
NtRp1094
(dp1095
g12
g13
sg14
S'Noto Sans Bamum'
p1096
sg16
I400
sg17
g13
sg18
g13
sg19
S'/System/Library/Fonts/Supplemental/NotoSansBamum-Regular.ttf'
p1097
sg21
g22
sbag7
(g8
g9
NtRp1098
(dp1099
g12
g13
sg14
S'Noto Sans Tirhuta'
p1100
sg16
I400
sg17
g13
sg18
g13
sg19
S'/System/Library/Fonts/Supplemental/NotoSansTirhuta-Regular.ttf'
p1101
sg21
g22
sbag7
(g8
g9
NtRp1102
(dp1103
g12
g74
sg14
S'.SF Compact'
p1104
sg16
I400
sg17
g13
sg18
g13
sg19
S'/System/Library/Fonts/SFCompactItalic.ttf'
p1105
sg21
g22
sbag7
(g8
g9
NtRp1106
(dp1107
g12
g13
sg14
S'Noto Sans Vai'
p1108
sg16
I400
sg17
g13
sg18
g13
sg19
S'/System/Library/Fonts/Supplemental/NotoSansVai-Regular.ttf'
p1109
sg21
g22
sbag7
(g8
g9
NtRp1110
(dp1111
g12
g13
sg14
S'Mishafi Gold'
p1112
sg16
I400
sg17
g13
sg18
g13
sg19
S'/System/Library/Fonts/Supplemental/Mishafi Gold.ttf'
p1113
sg21
g22
sbag7
(g8
g9
NtRp1114
(dp1115
g12
g13
sg14
S'Arial'
p1116
sg16
I700
sg17
g13
sg18
g13
sg19
S'/System/Library/Fonts/Supplemental/Arial Bold.ttf'
p1117
sg21
g22
sbag7
(g8
g9
NtRp1118
(dp1119
g12
g13
sg14
S'.SF NS Mono'
p1120
sg16
I400
sg17
g13
sg18
g13
sg19
S'/System/Library/Fonts/SFNSMono.ttf'
p1121
sg21
g22
sbag7
(g8
g9
NtRp1122
(dp1123
g12
g13
sg14
S'Courier New'
p1124
sg16
I400
sg17
g13
sg18
g13
sg19
S'/System/Library/Fonts/Supplemental/Courier New.ttf'
p1125
sg21
g22
sbag7
(g8
g9
NtRp1126
(dp1127
g12
g13
sg14
S'Noto Sans Limbu'
p1128
sg16
I400
sg17
g13
sg18
g13
sg19
S'/System/Library/Fonts/Supplemental/NotoSansLimbu-Regular.ttf'
p1129
sg21
g22
sbag7
(g8
g9
NtRp1130
(dp1131
g12
g13
sg14
S'BM Hanna Air'
p1132
sg16
I400
sg17
g13
sg18
g13
sg19
S'/System/Library/AssetsV2/com_apple_MobileAsset_Font7/f7b33b6b63ac62df4a15ffb507b52db565b1091c.asset/AssetData/BMHannaAir-Regular.otf'
p1133
sg21
g22
sbag7
(g8
g9
NtRp1134
(dp1135
g12
g13
sg14
S'BM Kirang Haerang'
p1136
sg16
I400
sg17
g13
sg18
g13
sg19
S'/System/Library/AssetsV2/com_apple_MobileAsset_Font7/2826c5ed6c617f49732314cb85e71d4d131c2b4f.asset/AssetData/BMKirangHaerang-Regular.otf'
p1137
sg21
g22
sbag7
(g8
g9
NtRp1138
(dp1139
g12
g13
sg14
S'Wingdings'
p1140
sg16
I400
sg17
g13
sg18
g13
sg19
S'/System/Library/Fonts/Supplemental/Wingdings.ttf'
p1141
sg21
g22
sbag7
(g8
g9
NtRp1142
(dp1143
g12
g74
sg14
S'Verdana'
p1144
sg16
I700
sg17
g13
sg18
g13
sg19
S'/System/Library/Fonts/Supplemental/Verdana Bold Italic.ttf'
p1145
sg21
g22
sbag7
(g8
g9
NtRp1146
(dp1147
g12
g13
sg14
S'STFangsong'
p1148
sg16
I400
sg17
g13
sg18
g13
sg19
S'/System/Library/AssetsV2/com_apple_MobileAsset_Font7/1821952872c81043711aab6910052b65da8edf2c.asset/AssetData/STFANGSO.ttf'
p1149
sg21
g22
sbag7
(g8
g9
NtRp1150
(dp1151
g12
g74
sg14
S'Trebuchet MS'
p1152
sg16
I400
sg17
g13
sg18
g13
sg19
S'/System/Library/Fonts/Supplemental/Trebuchet MS Italic.ttf'
p1153
sg21
g22
sbag7
(g8
g9
NtRp1154
(dp1155
g12
g13
sg14
S'STIXGeneral'
p1156
sg16
I700
sg17
g13
sg18
g13
sg19
S'/System/Library/Fonts/Supplemental/STIXGeneralBol.otf'
p1157
sg21
g22
sbag7
(g8
g9
NtRp1158
(dp1159
g12
g13
sg14
S'Comic Sans MS'
p1160
sg16
I700
sg17
g13
sg18
g13
sg19
S'/System/Library/Fonts/Supplemental/Comic Sans MS Bold.ttf'
p1161
sg21
g22
sbag7
(g8
g9
NtRp1162
(dp1163
g12
g13
sg14
S'Yuppy SC'
p1164
sg16
I400
sg17
g13
sg18
g13
sg19
S'/System/Library/AssetsV2/com_apple_MobileAsset_Font7/96af7ec9e88d5dae450d3162213f92a7b1129430.asset/AssetData/YuppySC-Regular.otf'
p1165
sg21
g22
sbag7
(g8
g9
NtRp1166
(dp1167
g12
g13
sg14
S'PilGi'
p1168
sg16
I400
sg17
g13
sg18
g13
sg19
S'/System/Library/AssetsV2/com_apple_MobileAsset_Font7/7ca27bc02dd7660f9dacd69df96d24639b96e080.asset/AssetData/Pilgiche.ttf'
p1169
sg21
g22
sbag7
(g8
g9
NtRp1170
(dp1171
g12
g13
sg14
S'LingWai TC'
p1172
sg16
I500
sg17
g13
sg18
g13
sg19
S'/System/Library/AssetsV2/com_apple_MobileAsset_Font7/b8cf53b3591d6062cd536ba5129454cba899a078.asset/AssetData/LingWaiTC-Medium.otf'
p1173
sg21
g22
sbag7
(g8
g9
NtRp1174
(dp1175
g12
g13
sg14
S'Farisi'
p1176
sg16
I400
sg17
g13
sg18
g13
sg19
S'/System/Library/Fonts/Supplemental/Farisi.ttf'
p1177
sg21
g22
sbag7
(g8
g9
NtRp1178
(dp1179
g12
g13
sg14
S'Noto Sans Masaram Gondi'
p1180
sg16
I400
sg17
g13
sg18
g13
sg19
S'/System/Library/Fonts/Supplemental/NotoSansMasaramGondi-Regular.otf'
p1181
sg21
g22
sbag7
(g8
g9
NtRp1182
(dp1183
g12
g13
sg14
S'Noto Sans Samaritan'
p1184
sg16
I400
sg17
g13
sg18
g13
sg19
S'/System/Library/Fonts/Supplemental/NotoSansSamaritan-Regular.ttf'
p1185
sg21
g22
sbag7
(g8
g9
NtRp1186
(dp1187
g12
g13
sg14
S'Noto Sans Tai Tham'
p1188
sg16
I400
sg17
g13
sg18
g13
sg19
S'/System/Library/Fonts/Supplemental/NotoSansTaiTham-Regular.ttf'
p1189
sg21
g22
sbag7
(g8
g9
NtRp1190
(dp1191
g12
g13
sg14
S'Sathu'
p1192
sg16
I400
sg17
g13
sg18
g13
sg19
S'/System/Library/Fonts/Supplemental/Sathu.ttf'
p1193
sg21
g22
sbag7
(g8
g9
NtRp1194
(dp1195
g12
g13
sg14
S'STIXSizeOneSym'
p1196
sg16
I400
sg17
g13
sg18
g13
sg19
S'/System/Library/Fonts/Supplemental/STIXSizOneSymReg.otf'
p1197
sg21
g22
sbag7
(g8
g9
NtRp1198
(dp1199
g12
g13
sg14
S'Noto Sans New Tai Lue'
p1200
sg16
I400
sg17
g13
sg18
g13
sg19
S'/System/Library/Fonts/Supplemental/NotoSansNewTaiLue-Regular.ttf'
p1201
sg21
g22
sbag7
(g8
g9
NtRp1202
(dp1203
g12
g13
sg14
S'Noto Sans Lycian'
p1204
sg16
I400
sg17
g13
sg18
g13
sg19
S'/System/Library/Fonts/Supplemental/NotoSansLycian-Regular.ttf'
p1205
sg21
g22
sbasS'defaultFamily'
p1206
(dp1207
S'afm'
p1208
S'Helvetica'
p1209
sS'ttf'
p1210
S'Bitstream Vera Sans'
p1211
ssS'ttffiles'
p1212
(lp1213
S'/System/Library/Frameworks/Python.framework/Versions/2.7/Extras/lib/python/matplotlib/mpl-data/fonts/ttf/cmex10.ttf'
p1214
aS'/System/Library/Frameworks/Python.framework/Versions/2.7/Extras/lib/python/matplotlib/mpl-data/fonts/ttf/VeraBI.ttf'
p1215
aS'/System/Library/Frameworks/Python.framework/Versions/2.7/Extras/lib/python/matplotlib/mpl-data/fonts/ttf/STIXNonUni.ttf'
p1216
aS'/System/Library/Frameworks/Python.framework/Versions/2.7/Extras/lib/python/matplotlib/mpl-data/fonts/ttf/STIXNonUniBol.ttf'
p1217
aS'/System/Library/Frameworks/Python.framework/Versions/2.7/Extras/lib/python/matplotlib/mpl-data/fonts/ttf/VeraMoBd.ttf'
p1218
aS'/System/Library/Frameworks/Python.framework/Versions/2.7/Extras/lib/python/matplotlib/mpl-data/fonts/ttf/cmr10.ttf'
p1219
aS'/System/Library/Frameworks/Python.framework/Versions/2.7/Extras/lib/python/matplotlib/mpl-data/fonts/ttf/STIXGeneral.ttf'
p1220
aS'/System/Library/Frameworks/Python.framework/Versions/2.7/Extras/lib/python/matplotlib/mpl-data/fonts/ttf/VeraMoIt.ttf'
p1221
aS'/System/Library/Frameworks/Python.framework/Versions/2.7/Extras/lib/python/matplotlib/mpl-data/fonts/ttf/VeraSe.ttf'
p1222
aS'/System/Library/Frameworks/Python.framework/Versions/2.7/Extras/lib/python/matplotlib/mpl-data/fonts/ttf/STIXSizFiveSymReg.ttf'
p1223
aS'/System/Library/Frameworks/Python.framework/Versions/2.7/Extras/lib/python/matplotlib/mpl-data/fonts/ttf/VeraMono.ttf'
p1224
aS'/System/Library/Frameworks/Python.framework/Versions/2.7/Extras/lib/python/matplotlib/mpl-data/fonts/ttf/VeraMoBI.ttf'
p1225
aS'/System/Library/Frameworks/Python.framework/Versions/2.7/Extras/lib/python/matplotlib/mpl-data/fonts/ttf/STIXGeneralBol.ttf'
p1226
aS'/System/Library/Frameworks/Python.framework/Versions/2.7/Extras/lib/python/matplotlib/mpl-data/fonts/ttf/STIXGeneralItalic.ttf'
p1227
aS'/System/Library/Frameworks/Python.framework/Versions/2.7/Extras/lib/python/matplotlib/mpl-data/fonts/ttf/STIXSizFourSymReg.ttf'
p1228
aS'/System/Library/Frameworks/Python.framework/Versions/2.7/Extras/lib/python/matplotlib/mpl-data/fonts/ttf/STIXSizThreeSymBol.ttf'
p1229
aS'/System/Library/Frameworks/Python.framework/Versions/2.7/Extras/lib/python/matplotlib/mpl-data/fonts/ttf/STIXSizOneSymBol.ttf'
p1230
aS'/System/Library/Frameworks/Python.framework/Versions/2.7/Extras/lib/python/matplotlib/mpl-data/fonts/ttf/STIXSizFourSymBol.ttf'
p1231
aS'/System/Library/Frameworks/Python.framework/Versions/2.7/Extras/lib/python/matplotlib/mpl-data/fonts/ttf/VeraBd.ttf'
p1232
aS'/System/Library/Frameworks/Python.framework/Versions/2.7/Extras/lib/python/matplotlib/mpl-data/fonts/ttf/cmsy10.ttf'
p1233
aS'/System/Library/Frameworks/Python.framework/Versions/2.7/Extras/lib/python/matplotlib/mpl-data/fonts/ttf/STIXSizTwoSymReg.ttf'
p1234
aS'/System/Library/Frameworks/Python.framework/Versions/2.7/Extras/lib/python/matplotlib/mpl-data/fonts/ttf/STIXNonUniBolIta.ttf'
p1235
aS'/System/Library/Frameworks/Python.framework/Versions/2.7/Extras/lib/python/matplotlib/mpl-data/fonts/ttf/cmb10.ttf'
p1236
aS'/System/Library/Frameworks/Python.framework/Versions/2.7/Extras/lib/python/matplotlib/mpl-data/fonts/ttf/cmmi10.ttf'
p1237
aS'/System/Library/Frameworks/Python.framework/Versions/2.7/Extras/lib/python/matplotlib/mpl-data/fonts/ttf/VeraIt.ttf'
p1238
aS'/System/Library/Frameworks/Python.framework/Versions/2.7/Extras/lib/python/matplotlib/mpl-data/fonts/ttf/STIXSizOneSymReg.ttf'
p1239
aS'/System/Library/Frameworks/Python.framework/Versions/2.7/Extras/lib/python/matplotlib/mpl-data/fonts/ttf/Vera.ttf'
p1240
aS'/System/Library/Frameworks/Python.framework/Versions/2.7/Extras/lib/python/matplotlib/mpl-data/fonts/ttf/cmss10.ttf'
p1241
aS'/System/Library/Frameworks/Python.framework/Versions/2.7/Extras/lib/python/matplotlib/mpl-data/fonts/ttf/VeraSeBd.ttf'
p1242
aS'/System/Library/Frameworks/Python.framework/Versions/2.7/Extras/lib/python/matplotlib/mpl-data/fonts/ttf/STIXSizTwoSymBol.ttf'
p1243
aS'/System/Library/Frameworks/Python.framework/Versions/2.7/Extras/lib/python/matplotlib/mpl-data/fonts/ttf/STIXNonUniIta.ttf'
p1244
aS'/System/Library/Frameworks/Python.framework/Versions/2.7/Extras/lib/python/matplotlib/mpl-data/fonts/ttf/cmtt10.ttf'
p1245
aS'/System/Library/Frameworks/Python.framework/Versions/2.7/Extras/lib/python/matplotlib/mpl-data/fonts/ttf/STIXGeneralBolIta.ttf'
p1246
aS'/System/Library/Frameworks/Python.framework/Versions/2.7/Extras/lib/python/matplotlib/mpl-data/fonts/ttf/STIXSizThreeSymReg.ttf'
p1247
aS'/System/Library/Fonts/Supplemental/NotoSansCaucasianAlbanian-Regular.ttf'
p1248
aS'/System/Library/Fonts/Supplemental/PartyLET-plain.ttf'
p1249
aS'/System/Library/Fonts/Supplemental/Trattatello.ttf'
p1250
aS'/System/Library/AssetsV2/com_apple_MobileAsset_Font7/0261f7b61f7cf2a9561694fc996a1e2ab9b517bb.asset/AssetData/BMDoHyeon-Regular.otf'
p1251
aS'/System/Library/Fonts/Supplemental/Arial Narrow.ttf'
p1252
aS'/System/Library/Fonts/Supplemental/STIXSizTwoSymBol.otf'
p1253
aS'/System/Library/Fonts/Supplemental/NotoSansCypriot-Regular.ttf'
p1254
aS'/System/Library/Fonts/SFNSItalic.ttf'
p1255
aS'/System/Library/Fonts/Supplemental/Mishafi.ttf'
p1256
aS'/Library/Fonts/Arial Unicode.ttf'
p1257
aS'/System/Library/Fonts/Supplemental/NotoSansThaana-Regular.ttf'
p1258
aS'/System/Library/Fonts/Supplemental/STIXGeneralBolIta.otf'
p1259
aS'/System/Library/Fonts/Supplemental/Comic Sans MS.ttf'
p1260
aS'/System/Library/Fonts/Supplemental/NotoSansPalmyrene-Regular.ttf'
p1261
aS'/System/Library/Fonts/Supplemental/Courier New Italic.ttf'
p1262
aS'/System/Library/Fonts/Supplemental/Krungthep.ttf'
p1263
aS'/System/Library/Fonts/Supplemental/STIXSizThreeSymBol.otf'
p1264
aS'/System/Library/Fonts/Supplemental/Luminari.ttf'
p1265
aS'/System/Library/AssetsV2/com_apple_MobileAsset_Font7/f0706a236683628e16427c6569e441423faaaa93.asset/AssetData/STXIHEI.ttf'
p1266
aS'/System/Library/Fonts/Supplemental/NotoSansSiddham-Regular.ttf'
p1267
aS'/System/Library/Fonts/Supplemental/Gurmukhi.ttf'
p1268
aS'/System/Library/AssetsV2/com_apple_MobileAsset_Font7/de97612eef4e3cf8ee8e5c0ebd6fd879bbecd23a.asset/AssetData/AppleLiGothic-Medium.ttf'
p1269
aS'/System/Library/Fonts/Supplemental/NotoSansInscriptionalParthian-Regular.ttf'
p1270
aS'/System/Library/Fonts/Supplemental/STIXIntSmBol.otf'
p1271
aS'/System/Library/Fonts/Supplemental/STIXNonUniBol.otf'
p1272
aS'/System/Library/Fonts/Supplemental/STIXIntUpBol.otf'
p1273
aS'/System/Library/Fonts/Supplemental/Microsoft Sans Serif.ttf'
p1274
aS'/System/Library/Fonts/Supplemental/Chalkduster.ttf'
p1275
aS'/System/Library/Fonts/Supplemental/Trebuchet MS Bold.ttf'
p1276
aS'/System/Library/AssetsV2/com_apple_MobileAsset_Font7/be500dfb81109622b25552bf40ef83b767d2683c.asset/AssetData/BMJua-Regular.otf'
p1277
aS'/System/Library/Fonts/ZapfDingbats.ttf'
p1278
aS'/System/Library/Fonts/Supplemental/STIXGeneralItalic.otf'
p1279
aS'/System/Library/Fonts/Supplemental/Courier New Bold Italic.ttf'
p1280
aS'/System/Library/Fonts/Supplemental/Verdana.ttf'
p1281
aS'/System/Library/Fonts/Supplemental/NotoSerifAhom-Regular.ttf'
p1282
aS'/System/Library/AssetsV2/com_apple_MobileAsset_Font7/0818d874bf1d0e24a1fe62e79f407717792c5ee1.asset/AssetData/OsakaMono.ttf'
p1283
aS'/System/Library/Fonts/Supplemental/Trebuchet MS.ttf'
p1284
aS'/System/Library/Fonts/Supplemental/NotoSansCham-Regular.ttf'
p1285
aS'/System/Library/Fonts/Supplemental/Arial Narrow Italic.ttf'
p1286
aS'/System/Library/Fonts/Supplemental/Georgia Italic.ttf'
p1287
aS'/System/Library/Fonts/Supplemental/Tahoma Bold.ttf'
p1288
aS'/System/Library/Fonts/Supplemental/NotoSansLisu-Regular.ttf'
p1289
aS'/System/Library/Fonts/Supplemental/Lao Sangam MN.ttf'
p1290
aS'/System/Library/Fonts/Supplemental/STIXIntUpReg.otf'
p1291
aS'/System/Library/Fonts/Supplemental/STIXIntUpSmReg.otf'
p1292
aS'/System/Library/AssetsV2/com_apple_MobileAsset_Font7/c2cf5e684236b5395fd48d6ccf0e3b3191ce83a0.asset/AssetData/PCmyoungjo.ttf'
p1293
aS'/System/Library/Fonts/Supplemental/AppleMyungjo.ttf'
p1294
aS'/System/Library/Fonts/Supplemental/NotoSansBhaiksuki-Regular.ttf'
p1295
aS'/System/Library/Fonts/Supplemental/Georgia.ttf'
p1296
aS'/System/Library/Fonts/Supplemental/NotoSansJavanese-Regular.otf'
p1297
aS'/System/Library/AssetsV2/com_apple_MobileAsset_Font7/de4b2bad515a67ab2d11e39fd896b1e189252a43.asset/AssetData/HeadlineA.ttf'
p1298
aS'/System/Library/Fonts/Supplemental/Herculanum.ttf'
p1299
aS'/System/Library/Fonts/SFNS.ttf'
p1300
aS'/System/Library/Fonts/Supplemental/STIXSizOneSymBol.otf'
p1301
aS'/System/Library/Fonts/Supplemental/NotoSansMiao-Regular.ttf'
p1302
aS'/System/Library/Fonts/Supplemental/NotoSansTagalog-Regular.ttf'
p1303
aS'/System/Library/Fonts/Supplemental/NotoSansMarchen-Regular.ttf'
p1304
aS'/System/Library/Fonts/Supplemental/NotoSansOldPermic-Regular.ttf'
p1305
aS'/System/Library/AssetsV2/com_apple_MobileAsset_Font7/f879347736afb6e4e0880bcede9df92492c0f040.asset/AssetData/Gungseouche.ttf'
p1306
aS'/System/Library/Fonts/Supplemental/NotoSansSyriac-Regular.ttf'
p1307
aS'/System/Library/Fonts/Supplemental/STIXNonUniIta.otf'
p1308
aS'/System/Library/AssetsV2/com_apple_MobileAsset_Font7/18189590ed3a5f46cef20ed4d1cec2611dca13ff.asset/AssetData/WawaSC-Regular.otf'
p1309
aS'/System/Library/Fonts/Apple Symbols.ttf'
p1310
aS'/System/Library/Fonts/Supplemental/NotoSansKharoshthi-Regular.ttf'
p1311
aS'/System/Library/Fonts/Supplemental/Zapfino.ttf'
p1312
aS'/System/Library/Fonts/Supplemental/NotoSansKhudawadi-Regular.ttf'
p1313
aS'/System/Library/Fonts/SFCompact.ttf'
p1314
aS'/System/Library/Fonts/Supplemental/STIXSizTwoSymReg.otf'
p1315
aS'/System/Library/Fonts/Supplemental/Academy Engraved LET Fonts.ttf'
p1316
aS'/System/Library/AssetsV2/com_apple_MobileAsset_Font7/2371acc1476f56b565e773159763b5dc3b3d6a1e.asset/AssetData/BiauKai.ttf'
p1317
aS'/System/Library/Fonts/Supplemental/NotoSansBrahmi-Regular.ttf'
p1318
aS'/System/Library/Fonts/Supplemental/NotoSansSaurashtra-Regular.ttf'
p1319
aS'/System/Library/Fonts/Supplemental/Arial Narrow Bold Italic.ttf'
p1320
aS'/System/Library/Fonts/Supplemental/NotoSansPahawhHmong-Regular.ttf'
p1321
aS'/System/Library/Fonts/Supplemental/PlantagenetCherokee.ttf'
p1322
aS'/System/Library/Fonts/Supplemental/NotoSansUgaritic-Regular.ttf'
p1323
aS'/System/Library/Fonts/Apple Braille Outline 8 Dot.ttf'
p1324
aS'/System/Library/Fonts/Supplemental/Courier New Bold.ttf'
p1325
aS'/System/Library/Fonts/Supplemental/Georgia Bold.ttf'
p1326
aS'/System/Library/Fonts/Supplemental/NotoSansMendeKikakui-Regular.ttf'
p1327
aS'/System/Library/Fonts/Supplemental/Arial Black.ttf'
p1328
aS'/System/Library/Fonts/Supplemental/NotoSansKaithi-Regular.ttf'
p1329
aS'/System/Library/Fonts/Supplemental/AppleGothic.ttf'
p1330
aS'/System/Library/Fonts/Supplemental/NotoSansAvestan-Regular.ttf'
p1331
aS'/System/Library/Fonts/Supplemental/NotoSansBuhid-Regular.ttf'
p1332
aS'/System/Library/Fonts/Supplemental/NotoSansHanunoo-Regular.ttf'
p1333
aS'/System/Library/Fonts/Supplemental/NotoSerifYezidi-Regular.otf'
p1334
aS'/System/Library/Fonts/Supplemental/NotoSansGlagolitic-Regular.ttf'
p1335
aS'/System/Library/Fonts/Supplemental/Georgia Bold Italic.ttf'
p1336
aS'/System/Library/Fonts/Supplemental/STIXIntUpDReg.otf'
p1337
aS'/System/Library/Fonts/SFArabic.ttf'
p1338
aS'/System/Library/Fonts/Supplemental/Hoefler Text Ornaments.ttf'
p1339
aS'/System/Library/AssetsV2/com_apple_MobileAsset_Font7/0c723883d13f8442faf3adb131fc1eb91c7a1bf1.asset/AssetData/WeibeiTC-Bold.otf'
p1340
aS'/System/Library/Fonts/Supplemental/NotoSansNKo-Regular.ttf'
p1341
aS'/System/Library/Fonts/Supplemental/NotoSansOsage-Regular.ttf'
p1342
aS'/System/Library/Fonts/Supplemental/NotoSansMeeteiMayek-Regular.ttf'
p1343
aS'/System/Library/Fonts/Supplemental/Impact.ttf'
p1344
aS'/System/Library/Fonts/Supplemental/NotoSansCuneiform-Regular.ttf'
p1345
aS'/System/Library/Fonts/Supplemental/NotoSansTaiLe-Regular.ttf'
p1346
aS'/System/Library/Fonts/LastResort.otf'
p1347
aS'/System/Library/Fonts/Supplemental/NotoSansLydian-Regular.ttf'
p1348
aS'/System/Library/Fonts/Supplemental/NotoSansTakri-Regular.ttf'
p1349
aS'/System/Library/Fonts/Supplemental/Silom.ttf'
p1350
aS'/System/Library/Fonts/Supplemental/NotoSansOldPersian-Regular.ttf'
p1351
aS'/System/Library/Fonts/Supplemental/Khmer Sangam MN.ttf'
p1352
aS'/System/Library/Fonts/Supplemental/NotoSansOsmanya-Regular.ttf'
p1353
aS'/System/Library/Fonts/Supplemental/NotoSansPhagsPa-Regular.ttf'
p1354
aS'/System/Library/Fonts/Supplemental/Skia.ttf'
p1355
aS'/System/Library/Fonts/Supplemental/NotoSansMultani-Regular.ttf'
p1356
aS'/System/Library/Fonts/Supplemental/Arial Italic.ttf'
p1357
aS'/System/Library/Fonts/Supplemental/NotoSansSundanese-Regular.ttf'
p1358
aS'/System/Library/Fonts/Supplemental/Wingdings 2.ttf'
p1359
aS'/System/Library/AssetsV2/com_apple_MobileAsset_Font7/e28431125242b9a298de3296370abdab4a7e8666.asset/AssetData/YuppyTC-Regular.otf'
p1360
aS'/System/Library/Fonts/Supplemental/STIXGeneral.otf'
p1361
aS'/System/Library/Fonts/SFNSRounded.ttf'
p1362
aS'/System/Library/Fonts/Supplemental/DIN Alternate Bold.ttf'
p1363
aS'/System/Library/Fonts/Supplemental/NotoSansWancho-Regular.ttf'
p1364
aS'/System/Library/Fonts/Supplemental/STIXSizFourSymBol.otf'
p1365
aS'/System/Library/Fonts/Supplemental/NotoSansOldSouthArabian-Regular.ttf'
p1366
aS'/System/Library/Fonts/Supplemental/NotoSansCoptic-Regular.ttf'
p1367
aS'/System/Library/Fonts/Supplemental/STIXIntUpSmBol.otf'
p1368
aS'/System/Library/Fonts/Apple Braille Pinpoint 8 Dot.ttf'
p1369
aS'/System/Library/Fonts/Supplemental/Bodoni Ornaments.ttf'
p1370
aS'/System/Library/Fonts/Apple Braille Outline 6 Dot.ttf'
p1371
aS'/System/Library/AssetsV2/com_apple_MobileAsset_Font7/938fc4f0524ec9f143f1b39a4e63ff9585298376.asset/AssetData/ToppanBunkyuMidashiGothicStdN-ExtraBold.otf'
p1372
aS'/System/Library/Fonts/Supplemental/Ayuthaya.ttf'
p1373
aS'/System/Library/Fonts/Supplemental/Arial Bold Italic.ttf'
p1374
aS'/System/Library/Fonts/NewYork.ttf'
p1375
aS'/System/Library/Fonts/Supplemental/Verdana Bold.ttf'
p1376
aS'/System/Library/AssetsV2/com_apple_MobileAsset_Font7/3a9dbc8ddc8b85f43055a28fb5d551e905d43de2.asset/AssetData/LiHeiPro.ttf'
p1377
aS'/System/Library/Fonts/Supplemental/NotoSansCarian-Regular.ttf'
p1378
aS'/System/Library/Fonts/Supplemental/STIXNonUni.otf'
p1379
aS'/System/Library/Fonts/SFNSMonoItalic.ttf'
p1380
aS'/System/Library/Fonts/Supplemental/STIXIntUpDBol.otf'
p1381
aS'/System/Library/Fonts/Supplemental/NotoSansOldItalic-Regular.ttf'
p1382
aS'/System/Library/Fonts/Supplemental/DIN Condensed Bold.ttf'
p1383
aS'/System/Library/Fonts/Supplemental/NotoSansLinearB-Regular.ttf'
p1384
aS'/System/Library/Fonts/Supplemental/NotoSansElbasan-Regular.ttf'
p1385
aS'/System/Library/Fonts/Supplemental/NotoSansGothic-Regular.ttf'
p1386
aS'/System/Library/Fonts/Supplemental/NISC18030.ttf'
p1387
aS'/System/Library/AssetsV2/com_apple_MobileAsset_Font7/8739f5cf483d3b2f04cbb451d310b68f0cf880d0.asset/AssetData/ToppanBunkyuMinchoPr6N-Regular.otf'
p1388
aS'/System/Library/Fonts/Supplemental/STIXVar.otf'
p1389
aS'/System/Library/Fonts/Supplemental/NotoSansTagbanwa-Regular.ttf'
p1390
aS'/System/Library/Fonts/Supplemental/NotoSansDuployan-Regular.ttf'
p1391
aS'/System/Library/AssetsV2/com_apple_MobileAsset_Font7/3d7c99b85a518ffb479044c11185e47744b6448d.asset/AssetData/WawaTC-Regular.otf'
p1392
aS'/System/Library/Fonts/Apple Braille.ttf'
p1393
aS'/System/Library/Fonts/Monaco.ttf'
p1394
aS'/System/Library/Fonts/Supplemental/NotoSansOlChiki-Regular.ttf'
p1395
aS'/System/Library/Fonts/Supplemental/Trebuchet MS Bold Italic.ttf'
p1396
aS'/System/Library/Fonts/Supplemental/STIXSizFourSymReg.otf'
p1397
aS'/System/Library/Fonts/Supplemental/Verdana Italic.ttf'
p1398
aS'/System/Library/Fonts/Supplemental/STIXIntDBol.otf'
p1399
aS'/System/Library/Fonts/Supplemental/Apple Chancery.ttf'
p1400
aS'/System/Library/Fonts/Supplemental/NotoSansBassaVah-Regular.ttf'
p1401
aS'/System/Library/Fonts/Supplemental/NotoSansTifinagh-Regular.ttf'
p1402
aS'/System/Library/Fonts/Supplemental/NotoSansSoraSompeng-Regular.ttf'
p1403
aS'/System/Library/Fonts/Supplemental/NotoSansLinearA-Regular.ttf'
p1404
aS'/System/Library/Fonts/Supplemental/NotoSansGunjalaGondi-Regular.otf'
p1405
aS'/System/Library/Fonts/Supplemental/NotoSansRejang-Regular.ttf'
p1406
aS'/System/Library/Fonts/Supplemental/NotoSansMeroitic-Regular.ttf'
p1407
aS'/System/Library/Fonts/Supplemental/NotoSansMro-Regular.ttf'
p1408
aS'/System/Library/Fonts/Supplemental/STIXNonUniBolIta.otf'
p1409
aS'/System/Library/Fonts/Supplemental/NotoSansChakma-Regular.ttf'
p1410
aS'/System/Library/Fonts/Supplemental/NotoSerifBalinese-Regular.ttf'
p1411
aS'/System/Library/AssetsV2/com_apple_MobileAsset_Font7/f0059ebd0704e246a1971c4892c45f38ad053413.asset/AssetData/BMHanna11yrs-Regular.otf'
p1412
aS'/System/Library/AssetsV2/com_apple_MobileAsset_Font7/e2c331b942cb338404a160a97a7cd6e8a31428e8.asset/AssetData/LingWaiSC-Medium.otf'
p1413
aS'/System/Library/AssetsV2/com_apple_MobileAsset_Font7/28f00a24ba19995bab7249993e6e35d11011074a.asset/AssetData/Kai.ttf'
p1414
aS'/System/Library/Fonts/Supplemental/BigCaslon.ttf'
p1415
aS'/System/Library/Fonts/Supplemental/NotoSansKhojki-Regular.ttf'
p1416
aS'/System/Library/Fonts/Supplemental/NotoSansSharada-Regular.ttf'
p1417
aS'/System/Library/Fonts/Supplemental/NotoSansBatak-Regular.ttf'
p1418
aS'/System/Library/Fonts/Supplemental/Times New Roman Bold.ttf'
p1419
aS'/System/Library/Fonts/Supplemental/NotoSansPhoenician-Regular.ttf'
p1420
aS'/System/Library/Fonts/Supplemental/Arial Narrow Bold.ttf'
p1421
aS'/System/Library/AssetsV2/com_apple_MobileAsset_Font7/40e56e4eafd8b4db78ffe316f64ac4bedba37b53.asset/AssetData/ToppanBunkyuMidashiMinchoStdN-ExtraBold.otf'
p1422
aS'/System/Library/Fonts/Supplemental/NotoSansHanifiRohingya-Regular.ttf'
p1423
aS'/System/Library/AssetsV2/com_apple_MobileAsset_Font7/5a3fc034b64879656271c040cab38b65d4ea6548.asset/AssetData/LiSongPro.ttf'
p1424
aS'/System/Library/Fonts/Supplemental/Arial.ttf'
p1425
aS'/System/Library/Fonts/Supplemental/NotoSansHatran-Regular.ttf'
p1426
aS'/System/Library/Fonts/NewYorkItalic.ttf'
p1427
aS'/System/Library/Fonts/Apple Braille Pinpoint 6 Dot.ttf'
p1428
aS'/System/Library/Fonts/Supplemental/NotoSansImperialAramaic-Regular.ttf'
p1429
aS'/System/Library/Fonts/Supplemental/NotoSansInscriptionalPahlavi-Regular.ttf'
p1430
aS'/System/Library/Fonts/Symbol.ttf'
p1431
aS'/System/Library/Fonts/Supplemental/NotoSansNewa-Regular.ttf'
p1432
aS'/System/Library/Fonts/Supplemental/NotoSansModi-Regular.ttf'
p1433
aS'/System/Library/AssetsV2/com_apple_MobileAsset_Font7/eb257c12d1a51c8c661b89f30eec56cacf9b8987.asset/AssetData/STHEITI.ttf'
p1434
aS'/System/Library/Fonts/Supplemental/Times New Roman Italic.ttf'
p1435
aS'/System/Library/Fonts/Supplemental/STIXIntDReg.otf'
p1436
aS'/System/Library/AssetsV2/com_apple_MobileAsset_Font7/ba5946173475eb777df1e152b131838137ff080d.asset/AssetData/BMHannaPro-Regular.otf'
p1437
aS'/System/Library/Fonts/Keyboard.ttf'
p1438
aS'/System/Library/Fonts/Supplemental/NotoSansYi-Regular.ttf'
p1439
aS'/System/Library/Fonts/Supplemental/Bodoni 72 Smallcaps Book.ttf'
p1440
aS'/System/Library/Fonts/SFCompactRounded.ttf'
p1441
aS'/System/Library/Fonts/Supplemental/NotoSansNabataean-Regular.ttf'
p1442
aS'/System/Library/Fonts/Supplemental/NotoSansAdlam-Regular.ttf'
p1443
aS'/System/Library/AssetsV2/com_apple_MobileAsset_Font7/62032b9b64a0e3a9121c50aeb2ed794e3e2c201f.asset/AssetData/Hei.ttf'
p1444
aS'/System/Library/Fonts/Supplemental/Tahoma.ttf'
p1445
aS'/System/Library/Fonts/Supplemental/NotoSansMongolian-Regular.ttf'
p1446
aS'/System/Library/Fonts/Geneva.ttf'
p1447
aS'/System/Library/Fonts/Supplemental/NotoSansBuginese-Regular.ttf'
p1448
aS'/System/Library/Fonts/Supplemental/NotoSansEgyptianHieroglyphs-Regular.ttf'
p1449
aS'/System/Library/Fonts/Supplemental/NotoSansOldNorthArabian-Regular.ttf'
p1450
aS'/System/Library/Fonts/Supplemental/NotoSansPauCinHau-Regular.ttf'
p1451
aS'/System/Library/Fonts/Supplemental/Wingdings 3.ttf'
p1452
aS'/System/Library/Fonts/Supplemental/NotoSansLepcha-Regular.ttf'
p1453
aS'/System/Library/Fonts/Supplemental/NotoSansSylotiNagri-Regular.ttf'
p1454
aS'/System/Library/Fonts/Supplemental/Arial Rounded Bold.ttf'
p1455
aS'/System/Library/Fonts/Supplemental/NotoSansPsalterPahlavi-Regular.ttf'
p1456
aS'/System/Library/AssetsV2/com_apple_MobileAsset_Font7/42062e40d643fdb5bb3fba917212352fb0690de0.asset/AssetData/YuGothic-Bold.otf'
p1457
aS'/System/Library/Fonts/Supplemental/Diwan Thuluth.ttf'
p1458
aS'/System/Library/Fonts/Supplemental/NotoSansManichaean-Regular.ttf'
p1459
aS'/System/Library/AssetsV2/com_apple_MobileAsset_Font7/a8805b853edf89283dec908153a0015bdd1d00f8.asset/AssetData/WeibeiSC-Bold.otf'
p1460
aS'/System/Library/Fonts/Supplemental/NotoSansMahajani-Regular.ttf'
p1461
aS'/System/Library/AssetsV2/com_apple_MobileAsset_Font7/54ef167d6c8e99a69a0d41ce252cc5995ba47580.asset/AssetData/YuGothic-Medium.otf'
p1462
aS'/System/Library/Fonts/Supplemental/STIXIntSmReg.otf'
p1463
aS'/System/Library/AssetsV2/com_apple_MobileAsset_Font7/2ae839cbaa0ff60fe6a1d8921a77c81adcec0646.asset/AssetData/AppleLiSung-Light.ttf'
p1464
aS'/System/Library/Fonts/Supplemental/Times New Roman.ttf'
p1465
aS'/System/Library/AssetsV2/com_apple_MobileAsset_Font7/a3f9a9e35bdf3babe03b2fd162051306fad439d6.asset/AssetData/Osaka.ttf'
p1466
aS'/System/Library/Fonts/Supplemental/Kokonor.ttf'
p1467
aS'/System/Library/AssetsV2/com_apple_MobileAsset_Font7/7eb2afb6cbdb982371bb615d532a887629d99bf4.asset/AssetData/BMYeongSung-Regular.otf'
p1468
aS'/System/Library/Fonts/Supplemental/Andale Mono.ttf'
p1469
aS'/System/Library/Fonts/Supplemental/NotoSansOldTurkic-Regular.ttf'
p1470
aS'/System/Library/Fonts/Supplemental/Brush Script.ttf'
p1471
aS'/System/Library/Fonts/Supplemental/NotoSansOldHungarian-Regular.ttf'
p1472
aS'/System/Library/Fonts/Supplemental/STIXSizFiveSymReg.otf'
p1473
aS'/System/Library/Fonts/Supplemental/STIXSizThreeSymReg.otf'
p1474
aS'/System/Library/Fonts/Supplemental/NotoSansKayahLi-Regular.ttf'
p1475
aS'/System/Library/Fonts/Supplemental/NotoSansWarangCiti-Regular.ttf'
p1476
aS'/System/Library/Fonts/Supplemental/STIXVarBol.otf'
p1477
aS'/System/Library/Fonts/Supplemental/Times New Roman Bold Italic.ttf'
p1478
aS'/System/Library/Fonts/Supplemental/Webdings.ttf'
p1479
aS'/System/Library/Fonts/Supplemental/NotoSansMandaic-Regular.ttf'
p1480
aS'/System/Library/Fonts/Supplemental/Bradley Hand Bold.ttf'
p1481
aS'/System/Library/Fonts/Supplemental/NotoSansTaiViet-Regular.ttf'
p1482
aS'/System/Library/Fonts/Supplemental/Arial Unicode.ttf'
p1483
aS'/System/Library/Fonts/Supplemental/NotoSansBamum-Regular.ttf'
p1484
aS'/System/Library/Fonts/Supplemental/NotoSansTirhuta-Regular.ttf'
p1485
aS'/System/Library/Fonts/SFCompactItalic.ttf'
p1486
aS'/System/Library/Fonts/Supplemental/NotoSansVai-Regular.ttf'
p1487
aS'/System/Library/Fonts/Supplemental/Mishafi Gold.ttf'
p1488
aS'/System/Library/Fonts/Supplemental/Arial Bold.ttf'
p1489
aS'/System/Library/Fonts/SFNSMono.ttf'
p1490
aS'/System/Library/Fonts/Supplemental/Courier New.ttf'
p1491
aS'/System/Library/Fonts/Supplemental/NotoSansLimbu-Regular.ttf'
p1492
aS'/System/Library/AssetsV2/com_apple_MobileAsset_Font7/f7b33b6b63ac62df4a15ffb507b52db565b1091c.asset/AssetData/BMHannaAir-Regular.otf'
p1493
aS'/System/Library/AssetsV2/com_apple_MobileAsset_Font7/2826c5ed6c617f49732314cb85e71d4d131c2b4f.asset/AssetData/BMKirangHaerang-Regular.otf'
p1494
aS'/System/Library/Fonts/Supplemental/Wingdings.ttf'
p1495
aS'/System/Library/Fonts/Supplemental/Verdana Bold Italic.ttf'
p1496
aS'/System/Library/AssetsV2/com_apple_MobileAsset_Font7/1821952872c81043711aab6910052b65da8edf2c.asset/AssetData/STFANGSO.ttf'
p1497
aS'/System/Library/Fonts/Supplemental/Trebuchet MS Italic.ttf'
p1498
aS'/System/Library/Fonts/Supplemental/STIXGeneralBol.otf'
p1499
aS'/System/Library/Fonts/Supplemental/Comic Sans MS Bold.ttf'
p1500
aS'/System/Library/AssetsV2/com_apple_MobileAsset_Font7/96af7ec9e88d5dae450d3162213f92a7b1129430.asset/AssetData/YuppySC-Regular.otf'
p1501
aS'/System/Library/AssetsV2/com_apple_MobileAsset_Font7/7ca27bc02dd7660f9dacd69df96d24639b96e080.asset/AssetData/Pilgiche.ttf'
p1502
aS'/System/Library/AssetsV2/com_apple_MobileAsset_Font7/b8cf53b3591d6062cd536ba5129454cba899a078.asset/AssetData/LingWaiTC-Medium.otf'
p1503
aS'/System/Library/Fonts/Supplemental/Farisi.ttf'
p1504
aS'/System/Library/Fonts/Supplemental/NotoSansMasaramGondi-Regular.otf'
p1505
aS'/System/Library/Fonts/Supplemental/NotoSansSamaritan-Regular.ttf'
p1506
aS'/System/Library/Fonts/Supplemental/NotoSansTaiTham-Regular.ttf'
p1507
aS'/System/Library/Fonts/Supplemental/Sathu.ttf'
p1508
aS'/System/Library/Fonts/Supplemental/STIXSizOneSymReg.otf'
p1509
aS'/System/Library/Fonts/Supplemental/NotoSansNewTaiLue-Regular.ttf'
p1510
aS'/System/Library/Fonts/Supplemental/NotoSansLycian-Regular.ttf'
p1511
asS'_FontManager__default_weight'
p1512
g13
sS'_version'
p1513
I101
sS'ttf_lookup_cache'
p1514
(dp1515
sS'default_size'
p1516
NsS'defaultFont'
p1517
(dp1518
g1208
S'/System/Library/Frameworks/Python.framework/Versions/2.7/Extras/lib/python/matplotlib/mpl-data/fonts/afm/phvl8a.afm'
p1519
sg1210
g1240
ssS'afmfiles'
p1520
(lp1521
g1519
aS'/System/Library/Frameworks/Python.framework/Versions/2.7/Extras/lib/python/matplotlib/mpl-data/fonts/afm/putbi8a.afm'
p1522
aS'/System/Library/Frameworks/Python.framework/Versions/2.7/Extras/lib/python/matplotlib/mpl-data/fonts/afm/pcrb8a.afm'
p1523
aS'/System/Library/Frameworks/Python.framework/Versions/2.7/Extras/lib/python/matplotlib/mpl-data/fonts/afm/phvbo8a.afm'
p1524
aS'/System/Library/Frameworks/Python.framework/Versions/2.7/Extras/lib/python/matplotlib/mpl-data/fonts/afm/phvb8an.afm'
p1525
aS'/System/Library/Frameworks/Python.framework/Versions/2.7/Extras/lib/python/matplotlib/mpl-data/fonts/pdfcorefonts/Symbol.afm'
p1526
aS'/System/Library/Frameworks/Python.framework/Versions/2.7/Extras/lib/python/matplotlib/mpl-data/fonts/afm/phvbo8an.afm'
p1527
aS'/System/Library/Frameworks/Python.framework/Versions/2.7/Extras/lib/python/matplotlib/mpl-data/fonts/pdfcorefonts/Times-Roman.afm'
p1528
aS'/System/Library/Frameworks/Python.framework/Versions/2.7/Extras/lib/python/matplotlib/mpl-data/fonts/afm/pncr8a.afm'
p1529
aS'/System/Library/Frameworks/Python.framework/Versions/2.7/Extras/lib/python/matplotlib/mpl-data/fonts/afm/phvlo8a.afm'
p1530
aS'/System/Library/Frameworks/Python.framework/Versions/2.7/Extras/lib/python/matplotlib/mpl-data/fonts/pdfcorefonts/Times-Italic.afm'
p1531
aS'/System/Library/Frameworks/Python.framework/Versions/2.7/Extras/lib/python/matplotlib/mpl-data/fonts/pdfcorefonts/Helvetica.afm'
p1532
aS'/System/Library/Frameworks/Python.framework/Versions/2.7/Extras/lib/python/matplotlib/mpl-data/fonts/afm/phvr8an.afm'
p1533
aS'/System/Library/Frameworks/Python.framework/Versions/2.7/Extras/lib/python/matplotlib/mpl-data/fonts/pdfcorefonts/Courier-Bold.afm'
p1534
aS'/System/Library/Frameworks/Python.framework/Versions/2.7/Extras/lib/python/matplotlib/mpl-data/fonts/pdfcorefonts/Helvetica-Bold.afm'
p1535
aS'/System/Library/Frameworks/Python.framework/Versions/2.7/Extras/lib/python/matplotlib/mpl-data/fonts/afm/ptmb8a.afm'
p1536
aS'/System/Library/Frameworks/Python.framework/Versions/2.7/Extras/lib/python/matplotlib/mpl-data/fonts/afm/pagd8a.afm'
p1537
aS'/System/Library/Frameworks/Python.framework/Versions/2.7/Extras/lib/python/matplotlib/mpl-data/fonts/pdfcorefonts/ZapfDingbats.afm'
p1538
aS'/System/Library/Frameworks/Python.framework/Versions/2.7/Extras/lib/python/matplotlib/mpl-data/fonts/afm/putr8a.afm'
p1539
aS'/System/Library/Frameworks/Python.framework/Versions/2.7/Extras/lib/python/matplotlib/mpl-data/fonts/afm/cmtt10.afm'
p1540
aS'/System/Library/Frameworks/Python.framework/Versions/2.7/Extras/lib/python/matplotlib/mpl-data/fonts/afm/pagko8a.afm'
p1541
aS'/System/Library/Frameworks/Python.framework/Versions/2.7/Extras/lib/python/matplotlib/mpl-data/fonts/afm/ptmr8a.afm'
p1542
aS'/System/Library/Frameworks/Python.framework/Versions/2.7/Extras/lib/python/matplotlib/mpl-data/fonts/pdfcorefonts/Helvetica-Oblique.afm'
p1543
aS'/System/Library/Frameworks/Python.framework/Versions/2.7/Extras/lib/python/matplotlib/mpl-data/fonts/afm/cmr10.afm'
p1544
aS'/System/Library/Frameworks/Python.framework/Versions/2.7/Extras/lib/python/matplotlib/mpl-data/fonts/pdfcorefonts/Courier-Oblique.afm'
p1545
aS'/System/Library/Frameworks/Python.framework/Versions/2.7/Extras/lib/python/matplotlib/mpl-data/fonts/afm/pcrro8a.afm'
p1546
aS'/System/Library/Frameworks/Python.framework/Versions/2.7/Extras/lib/python/matplotlib/mpl-data/fonts/afm/pcrbo8a.afm'
p1547
aS'/System/Library/Frameworks/Python.framework/Versions/2.7/Extras/lib/python/matplotlib/mpl-data/fonts/pdfcorefonts/Courier.afm'
p1548
aS'/System/Library/Frameworks/Python.framework/Versions/2.7/Extras/lib/python/matplotlib/mpl-data/fonts/afm/ptmbi8a.afm'
p1549
aS'/System/Library/Frameworks/Python.framework/Versions/2.7/Extras/lib/python/matplotlib/mpl-data/fonts/afm/pagdo8a.afm'
p1550
aS'/System/Library/Frameworks/Python.framework/Versions/2.7/Extras/lib/python/matplotlib/mpl-data/fonts/pdfcorefonts/Times-BoldItalic.afm'
p1551
aS'/System/Library/Frameworks/Python.framework/Versions/2.7/Extras/lib/python/matplotlib/mpl-data/fonts/pdfcorefonts/Helvetica-BoldOblique.afm'
p1552
aS'/System/Library/Frameworks/Python.framework/Versions/2.7/Extras/lib/python/matplotlib/mpl-data/fonts/afm/pbkd8a.afm'
p1553
aS'/System/Library/Frameworks/Python.framework/Versions/2.7/Extras/lib/python/matplotlib/mpl-data/fonts/afm/pplr8a.afm'
p1554
aS'/System/Library/Frameworks/Python.framework/Versions/2.7/Extras/lib/python/matplotlib/mpl-data/fonts/afm/pbkdi8a.afm'
p1555
aS'/System/Library/Frameworks/Python.framework/Versions/2.7/Extras/lib/python/matplotlib/mpl-data/fonts/afm/pagk8a.afm'
p1556
aS'/System/Library/Frameworks/Python.framework/Versions/2.7/Extras/lib/python/matplotlib/mpl-data/fonts/afm/putri8a.afm'
p1557
aS'/System/Library/Frameworks/Python.framework/Versions/2.7/Extras/lib/python/matplotlib/mpl-data/fonts/afm/phvr8a.afm'
p1558
aS'/System/Library/Frameworks/Python.framework/Versions/2.7/Extras/lib/python/matplotlib/mpl-data/fonts/afm/pbkl8a.afm'
p1559
aS'/System/Library/Frameworks/Python.framework/Versions/2.7/Extras/lib/python/matplotlib/mpl-data/fonts/afm/phvro8a.afm'
p1560
aS'/System/Library/Frameworks/Python.framework/Versions/2.7/Extras/lib/python/matplotlib/mpl-data/fonts/afm/psyr.afm'
p1561
aS'/System/Library/Frameworks/Python.framework/Versions/2.7/Extras/lib/python/matplotlib/mpl-data/fonts/pdfcorefonts/Times-Bold.afm'
p1562
aS'/System/Library/Frameworks/Python.framework/Versions/2.7/Extras/lib/python/matplotlib/mpl-data/fonts/afm/pplri8a.afm'
p1563
aS'/System/Library/Frameworks/Python.framework/Versions/2.7/Extras/lib/python/matplotlib/mpl-data/fonts/afm/pncb8a.afm'
p1564
aS'/System/Library/Frameworks/Python.framework/Versions/2.7/Extras/lib/python/matplotlib/mpl-data/fonts/afm/putb8a.afm'
p1565
aS'/System/Library/Frameworks/Python.framework/Versions/2.7/Extras/lib/python/matplotlib/mpl-data/fonts/afm/pncbi8a.afm'
p1566
aS'/System/Library/Frameworks/Python.framework/Versions/2.7/Extras/lib/python/matplotlib/mpl-data/fonts/afm/phvb8a.afm'
p1567
aS'/System/Library/Frameworks/Python.framework/Versions/2.7/Extras/lib/python/matplotlib/mpl-data/fonts/afm/pbkli8a.afm'
p1568
aS'/System/Library/Frameworks/Python.framework/Versions/2.7/Extras/lib/python/matplotlib/mpl-data/fonts/afm/pcrr8a.afm'
p1569
aS'/System/Library/Frameworks/Python.framework/Versions/2.7/Extras/lib/python/matplotlib/mpl-data/fonts/afm/pzdr.afm'
p1570
aS'/System/Library/Frameworks/Python.framework/Versions/2.7/Extras/lib/python/matplotlib/mpl-data/fonts/afm/cmsy10.afm'
p1571
aS'/System/Library/Frameworks/Python.framework/Versions/2.7/Extras/lib/python/matplotlib/mpl-data/fonts/afm/cmmi10.afm'
p1572
aS'/System/Library/Frameworks/Python.framework/Versions/2.7/Extras/lib/python/matplotlib/mpl-data/fonts/afm/pplbi8a.afm'
p1573
aS'/System/Library/Frameworks/Python.framework/Versions/2.7/Extras/lib/python/matplotlib/mpl-data/fonts/afm/cmex10.afm'
p1574
aS'/System/Library/Frameworks/Python.framework/Versions/2.7/Extras/lib/python/matplotlib/mpl-data/fonts/afm/pncri8a.afm'
p1575
aS'/System/Library/Frameworks/Python.framework/Versions/2.7/Extras/lib/python/matplotlib/mpl-data/fonts/afm/ptmri8a.afm'
p1576
aS'/System/Library/Frameworks/Python.framework/Versions/2.7/Extras/lib/python/matplotlib/mpl-data/fonts/afm/pzcmi8a.afm'
p1577
aS'/System/Library/Frameworks/Python.framework/Versions/2.7/Extras/lib/python/matplotlib/mpl-data/fonts/pdfcorefonts/Courier-BoldOblique.afm'
p1578
aS'/System/Library/Frameworks/Python.framework/Versions/2.7/Extras/lib/python/matplotlib/mpl-data/fonts/afm/phvro8an.afm'
p1579
aS'/System/Library/Frameworks/Python.framework/Versions/2.7/Extras/lib/python/matplotlib/mpl-data/fonts/afm/pplb8a.afm'
p1580
asS'afmlist'
p1581
(lp1582
g7
(g8
g9
NtRp1583
(dp1584
g12
g13
sg14
S'Helvetica'
p1585
sg16
I200
sg17
g13
sg18
g13
sg19
g1519
sg21
g22
sbag7
(g8
g9
NtRp1586
(dp1587
g12
g74
sg14
S'Utopia'
p1588
sg16
I700
sg17
g13
sg18
g13
sg19
g1522
sg21
g22
sbag7
(g8
g9
NtRp1589
(dp1590
g12
g13
sg14
S'Courier'
p1591
sg16
I700
sg17
g13
sg18
g13
sg19
g1523
sg21
g22
sbag7
(g8
g9
NtRp1592
(dp1593
g12
g74
sg14
S'Helvetica'
p1594
sg16
I700
sg17
g13
sg18
g13
sg19
g1524
sg21
g22
sbag7
(g8
g9
NtRp1595
(dp1596
g12
g13
sg14
S'Helvetica'
p1597
sg16
I700
sg17
g176
sg18
g13
sg19
g1525
sg21
g22
sbag7
(g8
g9
NtRp1598
(dp1599
g12
g13
sg14
S'Symbol'
p1600
sg16
I500
sg17
g13
sg18
g13
sg19
g1526
sg21
g22
sbag7
(g8
g9
NtRp1601
(dp1602
g12
g74
sg14
S'Helvetica'
p1603
sg16
I700
sg17
g176
sg18
g13
sg19
g1527
sg21
g22
sbag7
(g8
g9
NtRp1604
(dp1605
g12
g13
sg14
S'Times'
p1606
sg16
I500
sg17
g13
sg18
g13
sg19
g1528
sg21
g22
sbag7
(g8
g9
NtRp1607
(dp1608
g12
g13
sg14
S'New Century Schoolbook'
p1609
sg16
I500
sg17
g13
sg18
g13
sg19
g1529
sg21
g22
sbag7
(g8
g9
NtRp1610
(dp1611
g12
g74
sg14
S'Helvetica'
p1612
sg16
I200
sg17
g13
sg18
g13
sg19
g1530
sg21
g22
sbag7
(g8
g9
NtRp1613
(dp1614
g12
g74
sg14
S'Times'
p1615
sg16
I500
sg17
g13
sg18
g13
sg19
g1531
sg21
g22
sbag7
(g8
g9
NtRp1616
(dp1617
g12
g13
sg14
S'Helvetica'
p1618
sg16
I500
sg17
g13
sg18
g13
sg19
g1532
sg21
g22
sbag7
(g8
g9
NtRp1619
(dp1620
g12
g13
sg14
S'Helvetica'
p1621
sg16
I500
sg17
g176
sg18
g13
sg19
g1533
sg21
g22
sbag7
(g8
g9
NtRp1622
(dp1623
g12
g13
sg14
S'Courier'
p1624
sg16
I700
sg17
g13
sg18
g13
sg19
g1534
sg21
g22
sbag7
(g8
g9
NtRp1625
(dp1626
g12
g13
sg14
S'Helvetica'
p1627
sg16
I700
sg17
g13
sg18
g13
sg19
g1535
sg21
g22
sbag7
(g8
g9
NtRp1628
(dp1629
g12
g13
sg14
S'Times'
p1630
sg16
I700
sg17
g13
sg18
g13
sg19
g1536
sg21
g22
sbag7
(g8
g9
NtRp1631
(dp1632
g12
g13
sg14
S'ITC Avant Garde Gothic'
p1633
sg16
I600
sg17
g13
sg18
g13
sg19
g1537
sg21
g22
sbag7
(g8
g9
NtRp1634
(dp1635
g12
g13
sg14
S'ZapfDingbats'
p1636
sg16
I500
sg17
g13
sg18
g13
sg19
g1538
sg21
g22
sbag7
(g8
g9
NtRp1637
(dp1638
g12
g13
sg14
S'Utopia'
p1639
sg16
I400
sg17
g13
sg18
g13
sg19
g1539
sg21
g22
sbag7
(g8
g9
NtRp1640
(dp1641
g12
g13
sg14
S'Computer Modern'
p1642
sg16
I500
sg17
g13
sg18
g13
sg19
g1540
sg21
g22
sbag7
(g8
g9
NtRp1643
(dp1644
g12
g74
sg14
S'ITC Avant Garde Gothic'
p1645
sg16
I400
sg17
g13
sg18
g13
sg19
g1541
sg21
g22
sbag7
(g8
g9
NtRp1646
(dp1647
g12
g13
sg14
S'Times'
p1648
sg16
I500
sg17
g13
sg18
g13
sg19
g1542
sg21
g22
sbag7
(g8
g9
NtRp1649
(dp1650
g12
g74
sg14
S'Helvetica'
p1651
sg16
I500
sg17
g13
sg18
g13
sg19
g1543
sg21
g22
sbag7
(g8
g9
NtRp1652
(dp1653
g12
g13
sg14
S'Computer Modern'
p1654
sg16
I500
sg17
g13
sg18
g13
sg19
g1544
sg21
g22
sbag7
(g8
g9
NtRp1655
(dp1656
g12
g74
sg14
S'Courier'
p1657
sg16
I500
sg17
g13
sg18
g13
sg19
g1545
sg21
g22
sbag7
(g8
g9
NtRp1658
(dp1659
g12
g74
sg14
S'Courier'
p1660
sg16
I500
sg17
g13
sg18
g13
sg19
g1546
sg21
g22
sbag7
(g8
g9
NtRp1661
(dp1662
g12
g74
sg14
S'Courier'
p1663
sg16
I700
sg17
g13
sg18
g13
sg19
g1547
sg21
g22
sbag7
(g8
g9
NtRp1664
(dp1665
g12
g13
sg14
S'Courier'
p1666
sg16
I500
sg17
g13
sg18
g13
sg19
g1548
sg21
g22
sbag7
(g8
g9
NtRp1667
(dp1668
g12
g74
sg14
S'Times'
p1669
sg16
I700
sg17
g13
sg18
g13
sg19
g1549
sg21
g22
sbag7
(g8
g9
NtRp1670
(dp1671
g12
g74
sg14
S'ITC Avant Garde Gothic'
p1672
sg16
I600
sg17
g13
sg18
g13
sg19
g1550
sg21
g22
sbag7
(g8
g9
NtRp1673
(dp1674
g12
g74
sg14
S'Times'
p1675
sg16
I700
sg17
g13
sg18
g13
sg19
g1551
sg21
g22
sbag7
(g8
g9
NtRp1676
(dp1677
g12
g74
sg14
S'Helvetica'
p1678
sg16
I700
sg17
g13
sg18
g13
sg19
g1552
sg21
g22
sbag7
(g8
g9
NtRp1679
(dp1680
g12
g13
sg14
S'ITC Bookman'
p1681
sg16
I600
sg17
g13
sg18
g13
sg19
g1553
sg21
g22
sbag7
(g8
g9
NtRp1682
(dp1683
g12
g13
sg14
S'Palatino'
p1684
sg16
I500
sg17
g13
sg18
g13
sg19
g1554
sg21
g22
sbag7
(g8
g9
NtRp1685
(dp1686
g12
g74
sg14
S'ITC Bookman'
p1687
sg16
I600
sg17
g13
sg18
g13
sg19
g1555
sg21
g22
sbag7
(g8
g9
NtRp1688
(dp1689
g12
g13
sg14
S'ITC Avant Garde Gothic'
p1690
sg16
I400
sg17
g13
sg18
g13
sg19
g1556
sg21
g22
sbag7
(g8
g9
NtRp1691
(dp1692
g12
g74
sg14
S'Utopia'
p1693
sg16
I400
sg17
g13
sg18
g13
sg19
g1557
sg21
g22
sbag7
(g8
g9
NtRp1694
(dp1695
g12
g13
sg14
S'Helvetica'
p1696
sg16
I500
sg17
g13
sg18
g13
sg19
g1558
sg21
g22
sbag7
(g8
g9
NtRp1697
(dp1698
g12
g13
sg14
S'ITC Bookman'
p1699
sg16
I200
sg17
g13
sg18
g13
sg19
g1559
sg21
g22
sbag7
(g8
g9
NtRp1700
(dp1701
g12
g74
sg14
S'Helvetica'
p1702
sg16
I500
sg17
g13
sg18
g13
sg19
g1560
sg21
g22
sbag7
(g8
g9
NtRp1703
(dp1704
g12
g13
sg14
S'Symbol'
p1705
sg16
I500
sg17
g13
sg18
g13
sg19
g1561
sg21
g22
sbag7
(g8
g9
NtRp1706
(dp1707
g12
g13
sg14
S'Times'
p1708
sg16
I700
sg17
g13
sg18
g13
sg19
g1562
sg21
g22
sbag7
(g8
g9
NtRp1709
(dp1710
g12
g74
sg14
S'Palatino'
p1711
sg16
I500
sg17
g13
sg18
g13
sg19
g1563
sg21
g22
sbag7
(g8
g9
NtRp1712
(dp1713
g12
g13
sg14
S'New Century Schoolbook'
p1714
sg16
I700
sg17
g13
sg18
g13
sg19
g1564
sg21
g22
sbag7
(g8
g9
NtRp1715
(dp1716
g12
g13
sg14
S'Utopia'
p1717
sg16
I700
sg17
g13
sg18
g13
sg19
g1565
sg21
g22
sbag7
(g8
g9
NtRp1718
(dp1719
g12
g74
sg14
S'New Century Schoolbook'
p1720
sg16
I700
sg17
g13
sg18
g13
sg19
g1566
sg21
g22
sbag7
(g8
g9
NtRp1721
(dp1722
g12
g13
sg14
S'Helvetica'
p1723
sg16
I700
sg17
g13
sg18
g13
sg19
g1567
sg21
g22
sbag7
(g8
g9
NtRp1724
(dp1725
g12
g74
sg14
S'ITC Bookman'
p1726
sg16
I200
sg17
g13
sg18
g13
sg19
g1568
sg21
g22
sbag7
(g8
g9
NtRp1727
(dp1728
g12
g13
sg14
S'Courier'
p1729
sg16
I500
sg17
g13
sg18
g13
sg19
g1569
sg21
g22
sbag7
(g8
g9
NtRp1730
(dp1731
g12
g13
sg14
S'ITC Zapf Dingbats'
p1732
sg16
I500
sg17
g13
sg18
g13
sg19
g1570
sg21
g22
sbag7
(g8
g9
NtRp1733
(dp1734
g12
g74
sg14
S'Computer Modern'
p1735
sg16
I500
sg17
g13
sg18
g13
sg19
g1571
sg21
g22
sbag7
(g8
g9
NtRp1736
(dp1737
g12
g74
sg14
S'Computer Modern'
p1738
sg16
I500
sg17
g13
sg18
g13
sg19
g1572
sg21
g22
sbag7
(g8
g9
NtRp1739
(dp1740
g12
g74
sg14
S'Palatino'
p1741
sg16
I700
sg17
g13
sg18
g13
sg19
g1573
sg21
g22
sbag7
(g8
g9
NtRp1742
(dp1743
g12
g13
sg14
S'Computer Modern'
p1744
sg16
I500
sg17
g13
sg18
g13
sg19
g1574
sg21
g22
sbag7
(g8
g9
NtRp1745
(dp1746
g12
g74
sg14
S'New Century Schoolbook'
p1747
sg16
I500
sg17
g13
sg18
g13
sg19
g1575
sg21
g22
sbag7
(g8
g9
NtRp1748
(dp1749
g12
g74
sg14
S'Times'
p1750
sg16
I500
sg17
g13
sg18
g13
sg19
g1576
sg21
g22
sbag7
(g8
g9
NtRp1751
(dp1752
g12
g74
sg14
S'ITC Zapf Chancery'
p1753
sg16
I500
sg17
g13
sg18
g13
sg19
g1577
sg21
g22
sbag7
(g8
g9
NtRp1754
(dp1755
g12
g74
sg14
S'Courier'
p1756
sg16
I700
sg17
g13
sg18
g13
sg19
g1578
sg21
g22
sbag7
(g8
g9
NtRp1757
(dp1758
g12
g74
sg14
S'Helvetica'
p1759
sg16
I500
sg17
g176
sg18
g13
sg19
g1579
sg21
g22
sbag7
(g8
g9
NtRp1760
(dp1761
g12
g13
sg14
S'Palatino'
p1762
sg16
I700
sg17
g13
sg18
g13
sg19
g1580
sg21
g22
sbasb.